(dp1
VFood & Beverage/Condiments, Spices & Bake/Ketchup
p2
Vhttp://www.ispot.tv/products/r/ketchup
p3
sVFood & Beverage/Fruit Juices & Drinks/Juicer
p4
Vhttp://www.ispot.tv/products/2k/juicer
p5
sVHome & Real Estate/Cleaners & Fresheners/Iron Wool
p6
Vhttp://www.ispot.tv/products/5Q/iron-wool
p7
sVRetail Stores/Home Improvement/app
p8
Vhttp://www.ispot.tv/products/2I/app
p9
sVHome & Real Estate/Appliances/Refrigerator
p10
Vhttp://www.ispot.tv/products/Y3/refrigerator
p11
sVHome & Real Estate/Cleaners & Fresheners/Candles
p12
Vhttp://www.ispot.tv/products/IJ/candles
p13
sVRetail Stores/Department Stores/Baby Wipes
p14
Vhttp://www.ispot.tv/products/50/baby-wipes
p15
sVHome & Real Estate/Appliances/Washer and Dryer
p16
Vhttp://www.ispot.tv/products/2p/washer-and-dryer
p17
sVFood & Beverage/Meat & Seafood/Beef Jerky
p18
Vhttp://www.ispot.tv/products/ob/beef-jerky
p19
sVBusiness & Legal/Credit & Debit Cards/Mastercard and Visa
p20
Vhttp://www.ispot.tv/products/kw/mastercard-and-visa
p21
sVFood & Beverage/Dairy, Eggs & Cheese/Milk
p22
Vhttp://www.ispot.tv/products/kg/milk
p23
sVHealth Care & Medical/Sleep Aids/Snoring
p24
Vhttp://www.ispot.tv/products/ZV/snoring
p25
sVHome & Real Estate/Gardening & Outdoor/Charcoal
p26
Vhttp://www.ispot.tv/products/qk/charcoal
p27
sVFood & Beverage/Dairy, Eggs & Cheese/Provalone Cheese
p28
Vhttp://www.ispot.tv/products/dz/provalone-cheese
p29
sVLife & Entertainment/Hunting/Binoculars
p30
Vhttp://www.ispot.tv/products/Sz/binoculars
p31
sVElectronics & Communication/Wireless/Cell Phones
p32
Vhttp://www.ispot.tv/products/OS/cell-phones
p33
sVFood & Beverage/Snack Foods/Cookies
p34
Vhttp://www.ispot.tv/products/d0/cookies
p35
sVHome & Real Estate/Garbage & Freezer Bags/Sandwich Bags
p36
Vhttp://www.ispot.tv/products/77/sandwich-bags
p37
sVFood & Beverage/Spreads, Sauces & Salad Dressings/Barbecue Sauce
p38
Vhttp://www.ispot.tv/products/6e/barbecue-sauce
p39
sVHealth Care & Medical/Bones, Joints & Muscle/Osteoporosis
p40
Vhttp://www.ispot.tv/products/o2/osteoporosis
p41
sVHealth Care & Medical/Pain Relief/Arthritis
p42
Vhttp://www.ispot.tv/products/Td/arthritis
p43
sVFood & Beverage/Bread, Rice, Pastas & Sides/Instant Noodles
p44
Vhttp://www.ispot.tv/products/II/instant-noodles
p45
sVLife & Entertainment/Music/DVD
p46
Vhttp://www.ispot.tv/products/tL/dvd
p47
sVFood & Beverage/Meat & Seafood/Bacon
p48
Vhttp://www.ispot.tv/products/6d/bacon
p49
sVLife & Entertainment/Hunting/Apparel
p50
Vhttp://www.ispot.tv/products/g4/apparel
p51
sVLife & Entertainment/Hobbies & Collectibles/Ordainment
p52
Vhttp://www.ispot.tv/products/tY/ordainment
p53
sVFood & Beverage/Breakfast & Cereal/Yogurt
p54
Vhttp://www.ispot.tv/products/OF/yogurt
p55
sVHome & Real Estate/Showers, Hot Tubs & Spas/Bath Rug
p56
Vhttp://www.ispot.tv/products/ba/bath-rug
p57
sVHealth Care & Medical/Pain Relief/Overactive Bladder
p58
Vhttp://www.ispot.tv/products/BU/overactive-bladder
p59
sVLife & Entertainment/Toys & Games/Action Figures
p60
Vhttp://www.ispot.tv/products/tc/action-figures
p61
sVRetail Stores/Office & School Supplies/Paper
p62
Vhttp://www.ispot.tv/products/5R/paper
p63
sVFood & Beverage/Breakfast & Cereal/Ground Coffee
p64
Vhttp://www.ispot.tv/products/gz/ground-coffee
p65
sVVehicles/Auto Parts & Repair/Oil Change
p66
Vhttp://www.ispot.tv/products/tD/oil-change
p67
sVElectronics & Communication/Computers & Tablets/External Hard Drives
p68
Vhttp://www.ispot.tv/products/gi/external-hard-drives
p69
sVFood & Beverage/Snack Foods/Tortilla Chips
p70
Vhttp://www.ispot.tv/products/y/tortilla-chips
p71
sVHealth Care & Medical/Bones, Joints & Muscle/Pain Relief
p72
Vhttp://www.ispot.tv/products/7k/pain-relief
p73
sVElectronics & Communication/Consumer Software & Apps/Smartphone
p74
Vhttp://www.ispot.tv/products/be/smartphone
p75
sVBeauty & Appearance/Cosmetics & Makeup/Brushes
p76
Vhttp://www.ispot.tv/products/qc/brushes
p77
sVHealth Care & Medical/Vitamins & Supplements/Vitamin C
p78
Vhttp://www.ispot.tv/products/6H/vitamin-c
p79
sVElectronics & Communication/Wireless/App
p80
Vhttp://www.ispot.tv/products/5c/app
p81
sVRestaurants/Pizza/P'Zolo
p82
Vhttp://www.ispot.tv/products/kQ/p'zolo
p83
sVHome & Real Estate/Appliances/Cookbook
p84
Vhttp://www.ispot.tv/products/7B/cookbook
p85
sVFood & Beverage/Ice Cream & Frozen Treats/Ice Cream
p86
Vhttp://www.ispot.tv/products/1M/ice-cream
p87
sVElectronics & Communication/Cable & Satellite TV/HD DVR
p88
Vhttp://www.ispot.tv/products/nI/hd-dvr
p89
sVHealth Care & Medical/Bones, Joints & Muscle/Joints
p90
Vhttp://www.ispot.tv/products/gu/joints
p91
sVRetail Stores/Outdoor & Sporting Goods/Book
p92
Vhttp://www.ispot.tv/products/BO/book
p93
sVElectronics & Communication/Computers & Tablets/Software
p94
Vhttp://www.ispot.tv/products/A6/software
p95
sVElectronics & Communication/Computers & Tablets/Labeler
p96
Vhttp://www.ispot.tv/products/bD/labeler
p97
sVFood & Beverage/Candy & Gum/Cereal
p98
Vhttp://www.ispot.tv/products/51/cereal
p99
sVRetail Stores/Department Stores/Mattress
p100
Vhttp://www.ispot.tv/products/7O/mattress
p101
sVFood & Beverage/Pets/Birds
p102
Vhttp://www.ispot.tv/products/tQ/birds
p103
sVFood & Beverage/Frozen Foods/Kids
p104
Vhttp://www.ispot.tv/products/IL/kids
p105
sVBusiness & Legal/Banks/Website
p106
Vhttp://www.ispot.tv/products/fr/website
p107
sVFood & Beverage/Meat & Seafood/Chicken
p108
Vhttp://www.ispot.tv/products/kl/chicken
p109
sVFood & Beverage/Snack Foods/Low Calorie
p110
Vhttp://www.ispot.tv/products/ka/low-calorie
p111
sVFood & Beverage/Pets/Dogs
p112
Vhttp://www.ispot.tv/products/tW/dogs
p113
sVElectronics & Communication/Consumer Software & Apps/Operating System
p114
Vhttp://www.ispot.tv/products/Oi/operating-system
p115
sVFood & Beverage/Bread, Rice, Pastas & Sides/Buns
p116
Vhttp://www.ispot.tv/products/Bz/buns
p117
sVFood & Beverage/Dairy, Eggs & Cheese/Yogurt
p118
Vhttp://www.ispot.tv/products/8/yogurt
p119
sVFood & Beverage/Fruit Juices & Drinks/Cider
p120
Vhttp://www.ispot.tv/products/bQ/cider
p121
sVLife & Entertainment/Movies/Video Games
p122
Vhttp://www.ispot.tv/products/7a/video-games
p123
sVFood & Beverage/Spreads, Sauces & Salad Dressings/Mayonnaise
p124
Vhttp://www.ispot.tv/products/kj/mayonnaise
p125
sVFood & Beverage/Spreads, Sauces & Salad Dressings/Marinade
p126
Vhttp://www.ispot.tv/products/2V/marinade
p127
sVInsurance/Auto & General/Boat
p128
Vhttp://www.ispot.tv/products/BQ/boat
p129
sVElectronics & Communication/Televisions/Blu-Ray Player
p130
Vhttp://www.ispot.tv/products/26/blu-ray-player
p131
sVVehicles/Car Maintenance & Accessories/Wax
p132
Vhttp://www.ispot.tv/products/f3/wax
p133
sVLife & Entertainment/Hobbies & Collectibles/Coin Collecting
p134
Vhttp://www.ispot.tv/products/dy/coin-collecting
p135
sVFood & Beverage/Candy & Gum/Ice Cream
p136
Vhttp://www.ispot.tv/products/LN/ice-cream
p137
sVFood & Beverage/Canned Goods & Soups/Beans
p138
Vhttp://www.ispot.tv/products/5z/beans
p139
sVApparel, Footwear & Accessories/Clothing/Sports
p140
Vhttp://www.ispot.tv/products/ID/sports
p141
sVApparel, Footwear & Accessories/Accessories/Foot Files
p142
Vhttp://www.ispot.tv/products/2K/foot-files
p143
sVVehicles/Auto Parts & Repair/Brakes
p144
Vhttp://www.ispot.tv/products/fA/brakes
p145
sVHealth Care & Medical/Vitamins & Supplements/Gummy Vitamins
p146
Vhttp://www.ispot.tv/products/Tn/gummy-vitamins
p147
sVApparel, Footwear & Accessories/Clothing/Exercise and Fitness
p148
Vhttp://www.ispot.tv/products/SE/exercise-and-fitness
p149
sVVehicles/Car Maintenance & Accessories/Windshield Wiper Blades
p150
Vhttp://www.ispot.tv/products/2l/windshield-wiper-blades
p151
sVFood & Beverage/Snack Foods/Cake Mix
p152
Vhttp://www.ispot.tv/products/b4/cake-mix
p153
sVHome & Real Estate/Appliances/Food Processor
p154
Vhttp://www.ispot.tv/products/O1/food-processor
p155
sVHealth Care & Medical/Cold, Flu & Allergy Medication/Indoor & Outdoor Allergy
p156
Vhttp://www.ispot.tv/products/qb/indoor-&-outdoor-allergy
p157
sVLife & Entertainment/Books/Book
p158
Vhttp://www.ispot.tv/products/Ba/book
p159
sVRestaurants/Sit-Down/Steakhouse
p160
Vhttp://www.ispot.tv/products/Le/steakhouse
p161
sVHome & Real Estate/Appliances/Mixer
p162
Vhttp://www.ispot.tv/products/O6/mixer
p163
sVInsurance/Life & Supplementary/Life
p164
Vhttp://www.ispot.tv/products/B3/life
p165
sVApparel, Footwear & Accessories/Accessories/Jewelry
p166
Vhttp://www.ispot.tv/products/bO/jewelry
p167
sVHome & Real Estate/Cleaners & Fresheners/Multi-purpose Cleaner
p168
Vhttp://www.ispot.tv/products/TM/multi-purpose-cleaner
p169
sVElectronics & Communication/Consumer Software & Apps/Search Engine
p170
Vhttp://www.ispot.tv/products/q9/search-engine
p171
sVElectronics & Communication/Wireless/Ringtone
p172
Vhttp://www.ispot.tv/products/5M/ringtone
p173
sVHealth Care & Medical/Bones, Joints & Muscle/Insoles
p174
Vhttp://www.ispot.tv/products/fZ/insoles
p175
sVFood & Beverage/Snack Foods/Ice Cream
p176
Vhttp://www.ispot.tv/products/AJ/ice-cream
p177
sVFood & Beverage/Breakfast & Cereal/Baby
p178
Vhttp://www.ispot.tv/products/5F/baby
p179
sVHome & Real Estate/Detergents/Fabric Softener
p180
Vhttp://www.ispot.tv/products/kq/fabric-softener
p181
sVFood & Beverage/Ice Cream & Frozen Treats/Cats
p182
Vhttp://www.ispot.tv/products/tE/cats
p183
sVElectronics & Communication/Cable & Satellite TV/Streaming Player
p184
Vhttp://www.ispot.tv/products/S0/streaming-player
p185
sVLife & Entertainment/Hunting/Bait
p186
Vhttp://www.ispot.tv/products/SX/bait
p187
sVFood & Beverage/Breakfast & Cereal/App
p188
Vhttp://www.ispot.tv/products/TW/app
p189
sVLife & Entertainment/Books/Cookbooks
p190
Vhttp://www.ispot.tv/products/fU/cookbooks
p191
sVHealth Care & Medical/Vitamins & Supplements/Kids
p192
Vhttp://www.ispot.tv/products/Iw/kids
p193
sVHome & Real Estate/Power & Electricity/Flashlights
p194
Vhttp://www.ispot.tv/products/T9/flashlights
p195
sVVehicles/Fuel & Motor Oil/Metal End Caps
p196
Vhttp://www.ispot.tv/products/d5/metal-end-caps
p197
sVFood & Beverage/Ice Cream & Frozen Treats/Chocolate and Vanilla Swirl
p198
Vhttp://www.ispot.tv/products/bB/chocolate-and-vanilla-swirl
p199
sVFood & Beverage/Beer/American
p200
Vhttp://www.ispot.tv/products/Bc/american
p201
sVElectronics & Communication/Mobile Devices/Mobile Application
p202
Vhttp://www.ispot.tv/products/oj/mobile-application
p203
sVHome & Real Estate/Kitchenware/Pans
p204
Vhttp://www.ispot.tv/products/2b/pans
p205
sVVehicles/Bicycles, Recreation & Utility/Fishing
p206
Vhttp://www.ispot.tv/products/69/fishing
p207
sVLife & Entertainment/News & Information/Newspaper
p208
Vhttp://www.ispot.tv/products/bH/newspaper
p209
sVHome & Real Estate/Kitchenware/Griddle
p210
Vhttp://www.ispot.tv/products/1_/griddle
p211
sVBeauty & Appearance/Skin Care/Face Mask
p212
Vhttp://www.ispot.tv/products/Ti/face-mask
p213
sVElectronics & Communication/Computers & Tablets/Flash Drive
p214
Vhttp://www.ispot.tv/products/oc/flash-drive
p215
sVLife & Entertainment/Toys & Games/Video Games
p216
Vhttp://www.ispot.tv/products/SB/video-games
p217
sVFood & Beverage/Bread, Rice, Pastas & Sides/Boxed Pasta
p218
Vhttp://www.ispot.tv/products/Is/boxed-pasta
p219
sVApparel, Footwear & Accessories/Accessories/Bracelets
p220
Vhttp://www.ispot.tv/products/bl/bracelets
p221
sVHome & Real Estate/Power & Electricity/Light Bulbs
p222
Vhttp://www.ispot.tv/products/Oj/light-bulbs
p223
sVElectronics & Communication/Wireless/Network
p224
Vhttp://www.ispot.tv/products/2Q/network
p225
sVHealth Care & Medical/Vitamins & Supplements/Immune System
p226
Vhttp://www.ispot.tv/products/2q/immune-system
p227
sVHealth Care & Medical/Eye Care & Glasses/Glasses
p228
Vhttp://www.ispot.tv/products/5b/glasses
p229
sVHome & Real Estate/Paints & Stains/Interior Paints
p230
Vhttp://www.ispot.tv/products/TS/interior-paints
p231
sVLife & Entertainment/Toys & Games/Vehicles
p232
Vhttp://www.ispot.tv/products/b0/vehicles
p233
sVFood & Beverage/Snack Foods/Frosting
p234
Vhttp://www.ispot.tv/products/Ox/frosting
p235
sVBeauty & Appearance/Fragrances/Perfumes
p236
Vhttp://www.ispot.tv/products/Zu/perfumes
p237
sVFood & Beverage/Candy & Gum/Taffy
p238
Vhttp://www.ispot.tv/products/dl/taffy
p239
sVRetail Stores/Office & School Supplies/Pens
p240
Vhttp://www.ispot.tv/products/wI/pens
p241
sVVehicles/Car Maintenance & Accessories/GPS
p242
Vhttp://www.ispot.tv/products/1t/gps
p243
sVRestaurants/Pizza/Carryout
p244
Vhttp://www.ispot.tv/products/k9/carryout
p245
sVRetail Stores/Office & School Supplies/Markers
p246
Vhttp://www.ispot.tv/products/qF/markers
p247
sVHealth Care & Medical/Supplies/Sleep Aid
p248
Vhttp://www.ispot.tv/products/63/sleep-aid
p249
sVFood & Beverage/Breakfast & Cereal/Sausages
p250
Vhttp://www.ispot.tv/products/oa/sausages
p251
sVFood & Beverage/Snack Foods/Dip
p252
Vhttp://www.ispot.tv/products/AU/dip
p253
sVFood & Beverage/Wine & Alcohol/Cognac
p254
Vhttp://www.ispot.tv/products/27/cognac
p255
sVApparel, Footwear & Accessories/Accessories/Earrings
p256
Vhttp://www.ispot.tv/products/1h/earrings
p257
sVElectronics & Communication/Televisions/Interactive
p258
Vhttp://www.ispot.tv/products/ZT/interactive
p259
sVVehicles/Fuel & Motor Oil/Motorcycle
p260
Vhttp://www.ispot.tv/products/TX/motorcycle
p261
sVLife & Entertainment/Toys & Games/Stuffed Animal
p262
Vhttp://www.ispot.tv/products/1o/stuffed-animal
p263
sVHome & Real Estate/Kitchenware/Knives
p264
Vhttp://www.ispot.tv/products/IZ/knives
p265
sVRetail Stores/Outdoor & Sporting Goods/Flashlight
p266
Vhttp://www.ispot.tv/products/dY/flashlight
p267
sVBeauty & Appearance/Hair Care/Hair Dryer
p268
Vhttp://www.ispot.tv/products/1Y/hair-dryer
p269
sVHealth Care & Medical/Oral Care/Breath Mints
p270
Vhttp://www.ispot.tv/products/OT/breath-mints
p271
sVElectronics & Communication/Cable & Satellite TV/App
p272
Vhttp://www.ispot.tv/products/fi/app
p273
sVRetail Stores/Electronics/HDTV
p274
Vhttp://www.ispot.tv/products/2m/hdtv
p275
sVElectronics & Communication/Televisions/LED TV
p276
Vhttp://www.ispot.tv/products/on/led-tv
p277
sVBeauty & Appearance/Shaving and Hair Removal/Razors
p278
Vhttp://www.ispot.tv/products/Ln/razors
p279
sVRetail Stores/Clothing Stores/Women & Girls
p280
Vhttp://www.ispot.tv/products/b/women-&-girls
p281
sVHome & Real Estate/Cleaners & Fresheners/Dish
p282
Vhttp://www.ispot.tv/products/nP/dish
p283
sVFood & Beverage/Dairy, Eggs & Cheese/Cream Cheese
p284
Vhttp://www.ispot.tv/products/b9/cream-cheese
p285
sVFood & Beverage/Frozen Foods/Pizza Rolls
p286
Vhttp://www.ispot.tv/products/6O/pizza-rolls
p287
sVRetail Stores/Clothing Stores/Babies
p288
Vhttp://www.ispot.tv/products/nu/babies
p289
sVHome & Real Estate/Flooring/Cleaning
p290
Vhttp://www.ispot.tv/products/11/cleaning
p291
sVHome & Real Estate/Kitchenware/Napkins
p292
Vhttp://www.ispot.tv/products/O8/napkins
p293
sVRetail Stores/Clothing Stores/Shirts
p294
Vhttp://www.ispot.tv/products/1L/shirts
p295
sVApparel, Footwear & Accessories/Clothing/Fragrance
p296
Vhttp://www.ispot.tv/products/1p/fragrance
p297
sVFood & Beverage/Snack Foods/Fruit Snacks
p298
Vhttp://www.ispot.tv/products/5X/fruit-snacks
p299
sVHome & Real Estate/Kitchenware/Skillet
p300
Vhttp://www.ispot.tv/products/nK/skillet
p301
sVElectronics & Communication/Wireless/Home Phone
p302
Vhttp://www.ispot.tv/products/OG/home-phone
p303
sVLife & Entertainment/Hobbies & Collectibles/DVD Boxset
p304
Vhttp://www.ispot.tv/products/BX/dvd-boxset
p305
sVFood & Beverage/Candy & Gum/Gummies
p306
Vhttp://www.ispot.tv/products/6g/gummies
p307
sVElectronics & Communication/Computers & Tablets/Mobile Application
p308
Vhttp://www.ispot.tv/products/ol/mobile-application
p309
sVFood & Beverage/Snack Foods/Pudding
p310
Vhttp://www.ispot.tv/products/wF/pudding
p311
sVHealth Care & Medical/Cold, Flu & Allergy Medication/Sinus Relief
p312
Vhttp://www.ispot.tv/products/Bj/sinus-relief
p313
sVInsurance/Life & Supplementary/Babies
p314
Vhttp://www.ispot.tv/products/O5/babies
p315
sVHealth Care & Medical/Oral Care/Denture Cleaner
p316
Vhttp://www.ispot.tv/products/q6/denture-cleaner
p317
sVHome & Real Estate/Garbage & Freezer Bags/Kitchen Garbage Bags
p318
Vhttp://www.ispot.tv/products/71/kitchen-garbage-bags
p319
sVVehicles/Auto Makers/Purchasing System
p320
Vhttp://www.ispot.tv/products/gT/purchasing-system
p321
sVElectronics & Communication/Computers & Tablets/Pinters
p322
Vhttp://www.ispot.tv/products/Zc/pinters
p323
sVBusiness & Legal/Banks/Mobile Applications
p324
Vhttp://www.ispot.tv/products/Am/mobile-applications
p325
sVHome & Real Estate/Appliances/Barbecue Grills
p326
Vhttp://www.ispot.tv/products/Bp/barbecue-grills
p327
sVHome & Real Estate/Paints & Stains/Rust Protector
p328
Vhttp://www.ispot.tv/products/LV/rust-protector
p329
sVLife & Entertainment/TV Station/Magazine
p330
Vhttp://www.ispot.tv/products/IT/magazine
p331
sVHome & Real Estate/Tools/Grass Trimmer
p332
Vhttp://www.ispot.tv/products/fJ/grass-trimmer
p333
sVFood & Beverage/Spreads, Sauces & Salad Dressings/Pasta Sauce
p334
Vhttp://www.ispot.tv/products/wb/pasta-sauce
p335
sVLife & Entertainment/Hunting/Trail Cameras
p336
Vhttp://www.ispot.tv/products/gU/trail-cameras
p337
sVRestaurants/Sit-Down/Buffet
p338
Vhttp://www.ispot.tv/products/LU/buffet
p339
sVHome & Real Estate/Tools/Batteries
p340
Vhttp://www.ispot.tv/products/fj/batteries
p341
sVBeauty & Appearance/Skin Care/Psoriasis
p342
Vhttp://www.ispot.tv/products/qD/psoriasis
p343
sVFood & Beverage/Snack Foods/Applesauce
p344
Vhttp://www.ispot.tv/products/Si/applesauce
p345
sVFood & Beverage/Canned Goods & Soups/Snacks
p346
Vhttp://www.ispot.tv/products/L1/snacks
p347
sVFood & Beverage/Wine & Alcohol/Wine
p348
Vhttp://www.ispot.tv/products/I3/wine
p349
sVHealth Care & Medical/Bones, Joints & Muscle/Heat Patch
p350
Vhttp://www.ispot.tv/products/L2/heat-patch
p351
sVHome & Real Estate/Appliances/Fans
p352
Vhttp://www.ispot.tv/products/qw/fans
p353
sVLife & Entertainment/Movies/Online
p354
Vhttp://www.ispot.tv/products/70/online
p355
sVHealth Care & Medical/Vitamins & Supplements/Multivitamin Tablets
p356
Vhttp://www.ispot.tv/products/7s/multivitamin-tablets
p357
sVFood & Beverage/Dairy, Eggs & Cheese/Sour Cream
p358
Vhttp://www.ispot.tv/products/7r/sour-cream
p359
sVLife & Entertainment/Sports/Cycling
p360
Vhttp://www.ispot.tv/products/TD/cycling
p361
sVApparel, Footwear & Accessories/Accessories/Watches
p362
Vhttp://www.ispot.tv/products/2n/watches
p363
sVRestaurants/Fast Food/Chicken
p364
Vhttp://www.ispot.tv/products/J/chicken
p365
sVLife & Entertainment/Books/Newspaper
p366
Vhttp://www.ispot.tv/products/nU/newspaper
p367
sVVehicles/Auto Makers/Sedan
p368
Vhttp://www.ispot.tv/products/oi/sedan
p369
sVFood & Beverage/Dairy, Eggs & Cheese/Coffee Creamers
p370
Vhttp://www.ispot.tv/products/k2/coffee-creamers
p371
sVFood & Beverage/Spreads, Sauces & Salad Dressings/Jelly
p372
Vhttp://www.ispot.tv/products/5t/jelly
p373
sVHealth Care & Medical/Pain Relief/Hemorrhoids
p374
Vhttp://www.ispot.tv/products/o7/hemorrhoids
p375
sVBeauty & Appearance/Hair Care/Shampoos and Conditioners
p376
Vhttp://www.ispot.tv/products/kz/shampoos-and-conditioners
p377
sVFood & Beverage/Coffee & Tea/Instant Coffee
p378
Vhttp://www.ispot.tv/products/6M/instant-coffee
p379
sVHome & Real Estate/Tools/Pliers
p380
Vhttp://www.ispot.tv/products/1A/pliers
p381
sVRetail Stores/Outdoor & Sporting Goods/Archery
p382
Vhttp://www.ispot.tv/products/T8/archery
p383
sVHome & Real Estate/Paints & Stains/Wood Protector
p384
Vhttp://www.ispot.tv/products/kI/wood-protector
p385
sVApparel, Footwear & Accessories/Accessories/Fragrance
p386
Vhttp://www.ispot.tv/products/1y/fragrance
p387
sVHome & Real Estate/Tools/Rope
p388
Vhttp://www.ispot.tv/products/B6/rope
p389
sVHealth Care & Medical/Oral Care/Insurance
p390
Vhttp://www.ispot.tv/products/qS/insurance
p391
sVHome & Real Estate/Tools/Wrench
p392
Vhttp://www.ispot.tv/products/52/wrench
p393
sVRetail Stores/Grocery Stores/Laundry Detergent
p394
Vhttp://www.ispot.tv/products/LL/laundry-detergent
p395
sVRestaurants/Fast Food/Smoothie
p396
Vhttp://www.ispot.tv/products/Tb/smoothie
p397
sVFood & Beverage/Snack Foods/Popcorn
p398
Vhttp://www.ispot.tv/products/ZP/popcorn
p399
sVFood & Beverage/Breakfast & Cereal/Breakfast Drink
p400
Vhttp://www.ispot.tv/products/wS/breakfast-drink
p401
sVRetail Stores/Home Improvement/Carpets
p402
Vhttp://www.ispot.tv/products/qs/carpets
p403
sVHealth Care & Medical/Gyms & Fitness/DVD
p404
Vhttp://www.ispot.tv/products/5l/dvd
p405
sVApparel, Footwear & Accessories/Shoes & Socks/Golf Shoes
p406
Vhttp://www.ispot.tv/products/S4/golf-shoes
p407
sVRetail Stores/Online & Auction Websites/Coupons
p408
Vhttp://www.ispot.tv/products/tr/coupons
p409
sVRetail Stores/Office & School Supplies/Glue
p410
Vhttp://www.ispot.tv/products/q_/glue
p411
sVLife & Entertainment/Sports/apparel
p412
Vhttp://www.ispot.tv/products/gt/apparel
p413
sVBeauty & Appearance/Shaving and Hair Removal/Weight Reduction
p414
Vhttp://www.ispot.tv/products/6U/weight-reduction
p415
sVFood & Beverage/Snack Foods/Pasta
p416
Vhttp://www.ispot.tv/products/I4/pasta
p417
sVVehicles/Bicycles, Recreation & Utility/Tractors
p418
Vhttp://www.ispot.tv/products/6h/tractors
p419
sVVehicles/Auto Parts & Repair/Electronics
p420
Vhttp://www.ispot.tv/products/Aq/electronics
p421
sVElectronics & Communication/Cable & Satellite TV/Internet
p422
Vhttp://www.ispot.tv/products/d/internet
p423
sVBeauty & Appearance/Fragrances/Colognes
p424
Vhttp://www.ispot.tv/products/oU/colognes
p425
sVFood & Beverage/Snack Foods/Muffins
p426
Vhttp://www.ispot.tv/products/5N/muffins
p427
sVHealth Care & Medical/Oral Care/Pain Relief
p428
Vhttp://www.ispot.tv/products/qf/pain-relief
p429
sVLife & Entertainment/Toys & Games/Stickers
p430
Vhttp://www.ispot.tv/products/S2/stickers
p431
sVHealth Care & Medical/Pets/Daily Oral Care
p432
Vhttp://www.ispot.tv/products/tz/daily-oral-care
p433
sVFood & Beverage/Snack Foods/Coffee
p434
Vhttp://www.ispot.tv/products/T_/coffee
p435
sVLife & Entertainment/Religion/Book
p436
Vhttp://www.ispot.tv/products/Tw/book
p437
sVHome & Real Estate/Paints & Stains/Waterproofing
p438
Vhttp://www.ispot.tv/products/or/waterproofing
p439
sVApparel, Footwear & Accessories/Shoes & Socks/Mobile Application
p440
Vhttp://www.ispot.tv/products/wA/mobile-application
p441
sVFood & Beverage/Dairy, Eggs & Cheese/Soy Milk
p442
Vhttp://www.ispot.tv/products/d4/soy-milk
p443
sVVehicles/Car Maintenance & Accessories/Batteries
p444
Vhttp://www.ispot.tv/products/Sp/batteries
p445
sVFood & Beverage/Fruit Juices & Drinks/Coconut Water
p446
Vhttp://www.ispot.tv/products/Tg/coconut-water
p447
sVHealth Care & Medical/Pain Relief/Menopause
p448
Vhttp://www.ispot.tv/products/oq/menopause
p449
sVRetail Stores/Electronics/Credit Card
p450
Vhttp://www.ispot.tv/products/SU/credit-card
p451
sVFood & Beverage/Frozen Foods/Weight Loss
p452
Vhttp://www.ispot.tv/products/5k/weight-loss
p453
sVRestaurants/Sit-Down/Seafood
p454
Vhttp://www.ispot.tv/products/La/seafood
p455
sVBeauty & Appearance/Hair Care/Hair Creams and Pastes
p456
Vhttp://www.ispot.tv/products/1g/hair-creams-and-pastes
p457
sVFood & Beverage/Snack Foods/Cinnamon Rolls
p458
Vhttp://www.ispot.tv/products/OX/cinnamon-rolls
p459
sVRetail Stores/Office & School Supplies/Tape
p460
Vhttp://www.ispot.tv/products/d1/tape
p461
sVRetail Stores/Clothing Stores/Men
p462
Vhttp://www.ispot.tv/products/Y8/men
p463
sVHome & Real Estate/Kitchenware/Knife Sharpener
p464
Vhttp://www.ispot.tv/products/Io/knife-sharpener
p465
sVVehicles/Auto Parts & Repair/Body & Collision Repair
p466
Vhttp://www.ispot.tv/products/z/body-&-collision-repair
p467
sVHome & Real Estate/Appliances/Pie Crust Maker
p468
Vhttp://www.ispot.tv/products/q7/pie-crust-maker
p469
sVRetail Stores/Clothing Stores/Suits
p470
Vhttp://www.ispot.tv/products/5s/suits
p471
sVRestaurants/Fast Food/Breakfast
p472
Vhttp://www.ispot.tv/products/AY/breakfast
p473
sVHome & Real Estate/Cleaners & Fresheners/Dusters
p474
Vhttp://www.ispot.tv/products/n0/dusters
p475
sVBeauty & Appearance/Hair Care/Brushes
p476
Vhttp://www.ispot.tv/products/wp/brushes
p477
sVRetail Stores/Office & School Supplies/Organization
p478
Vhttp://www.ispot.tv/products/tT/organization
p479
sVHealth Care & Medical/Pets/Flea and Tick Medication
p480
Vhttp://www.ispot.tv/products/TV/flea-and-tick-medication
p481
sVFood & Beverage/Snack Foods/Pistachios
p482
Vhttp://www.ispot.tv/products/ZG/pistachios
p483
sVHome & Real Estate/Detergents/Dishwasher
p484
Vhttp://www.ispot.tv/products/p/dishwasher
p485
sVLife & Entertainment/Toys & Games/Camera
p486
Vhttp://www.ispot.tv/products/Ok/camera
p487
sVFood & Beverage/Wine & Alcohol/Whiskey
p488
Vhttp://www.ispot.tv/products/Lx/whiskey
p489
sVHome & Real Estate/Gardening & Outdoor/Plants
p490
Vhttp://www.ispot.tv/products/1V/plants
p491
sVHealth Care & Medical/Oral Care/Toothbrush
p492
Vhttp://www.ispot.tv/products/tb/toothbrush
p493
sVRestaurants/Sit-Down/Pasta
p494
Vhttp://www.ispot.tv/products/15/pasta
p495
sVBusiness & Legal/Credit & Debit Cards/Prepaid Cards
p496
Vhttp://www.ispot.tv/products/L6/prepaid-cards
p497
sVFood & Beverage/Canned Goods & Soups/Broth
p498
Vhttp://www.ispot.tv/products/Zy/broth
p499
sVHealth Care & Medical/Baby Care/Creams & Lotions
p500
Vhttp://www.ispot.tv/products/gm/creams-&-lotions
p501
sVFood & Beverage/Spreads, Sauces & Salad Dressings/Margarine
p502
Vhttp://www.ispot.tv/products/ge/margarine
p503
sVHealth Care & Medical/Eye Care & Glasses/Eye Exams
p504
Vhttp://www.ispot.tv/products/ST/eye-exams
p505
sVApparel, Footwear & Accessories/Shoes & Socks/Football Cleats
p506
Vhttp://www.ispot.tv/products/AT/football-cleats
p507
sVHome & Real Estate/Gardening & Outdoor/Soil
p508
Vhttp://www.ispot.tv/products/5w/soil
p509
sVHealth Care & Medical/Cold, Flu & Allergy Medication/Congestion
p510
Vhttp://www.ispot.tv/products/ov/congestion
p511
sVElectronics & Communication/Computers & Tablets/Server
p512
Vhttp://www.ispot.tv/products/Te/server
p513
sVLife & Entertainment/Tickets/Rewards
p514
Vhttp://www.ispot.tv/products/1l/rewards
p515
sVVehicles/Bicycles, Recreation & Utility/Riding Lawn Mowers
p516
Vhttp://www.ispot.tv/products/68/riding-lawn-mowers
p517
sVLife & Entertainment/TV Station/Book
p518
Vhttp://www.ispot.tv/products/ZB/book
p519
sVFood & Beverage/Health Conscious/Frozen Foods
p520
Vhttp://www.ispot.tv/products/oP/frozen-foods
p521
sVFood & Beverage/Soda/Cola
p522
Vhttp://www.ispot.tv/products/R/cola
p523
sVRestaurants/Fast Food/Dessert
p524
Vhttp://www.ispot.tv/products/k_/dessert
p525
sVHealth Care & Medical/Feminine Hygeine/Liners
p526
Vhttp://www.ispot.tv/products/YR/liners
p527
sVHome & Real Estate/Housing & Home Improvement/Reusable Wall Hooks
p528
Vhttp://www.ispot.tv/products/qA/reusable-wall-hooks
p529
sVRetail Stores/Department Stores/Credit and Debit Cards
p530
Vhttp://www.ispot.tv/products/Sk/credit-and-debit-cards
p531
sVHealth Care & Medical/Eye Care & Glasses/Eye Drops
p532
Vhttp://www.ispot.tv/products/t3/eye-drops
p533
sVHome & Real Estate/Appliances/Toaster
p534
Vhttp://www.ispot.tv/products/1W/toaster
p535
sVLife & Entertainment/Religion/DVD
p536
Vhttp://www.ispot.tv/products/Bg/dvd
p537
sVHealth Care & Medical/Sleep Aids/Sound Conditioner
p538
Vhttp://www.ispot.tv/products/fT/sound-conditioner
p539
sVFood & Beverage/Meat & Seafood/Sausage
p540
Vhttp://www.ispot.tv/products/oo/sausage
p541
sVRetail Stores/Department Stores/Outdoor Furniture
p542
Vhttp://www.ispot.tv/products/f5/outdoor-furniture
p543
sVRetail Stores/Home Improvement/Flooring
p544
Vhttp://www.ispot.tv/products/5W/flooring
p545
sVLife & Entertainment/Toys & Games/Blanket
p546
Vhttp://www.ispot.tv/products/1j/blanket
p547
sVLife & Entertainment/Music/Music Instruments
p548
Vhttp://www.ispot.tv/products/Ol/music-instruments
p549
sVFood & Beverage/Fruit Juices & Drinks/Grape Juice
p550
Vhttp://www.ispot.tv/products/Og/grape-juice
p551
sVHome & Real Estate/Appliances/Washer
p552
Vhttp://www.ispot.tv/products/dA/washer
p553
sVElectronics & Communication/Computers & Tablets/Scanner
p554
Vhttp://www.ispot.tv/products/tf/scanner
p555
sVApparel, Footwear & Accessories/Shoes & Socks/Skate Shoes
p556
Vhttp://www.ispot.tv/products/Su/skate-shoes
p557
sVVehicles/Car Maintenance & Accessories/Rain Repellent
p558
Vhttp://www.ispot.tv/products/6Y/rain-repellent
p559
sVBusiness & Legal/Banks/Mortgages
p560
Vhttp://www.ispot.tv/products/B8/mortgages
p561
sVLife & Entertainment/Sports/DVD
p562
Vhttp://www.ispot.tv/products/Tv/dvd
p563
sVRestaurants/Fast Food/Burritos
p564
Vhttp://www.ispot.tv/products/2X/burritos
p565
sVRetail Stores/Toy Stores/Stuffed Animals
p566
Vhttp://www.ispot.tv/products/b8/stuffed-animals
p567
sVHome & Real Estate/Paints & Stains/Paint and Primer
p568
Vhttp://www.ispot.tv/products/TZ/paint-and-primer
p569
sVRestaurants/Sit-Down/Breakfast
p570
Vhttp://www.ispot.tv/products/nM/breakfast
p571
sVBeauty & Appearance/Skin Care/Tanning
p572
Vhttp://www.ispot.tv/products/fF/tanning
p573
sVElectronics & Communication/Wireless/Tablet
p574
Vhttp://www.ispot.tv/products/SD/tablet
p575
sVLife & Entertainment/Movies/Digital Download
p576
Vhttp://www.ispot.tv/products/fm/digital-download
p577
sVHome & Real Estate/Kitchenware/Cutter
p578
Vhttp://www.ispot.tv/products/f6/cutter
p579
sVFood & Beverage/Ice Cream & Frozen Treats/Dessert
p580
Vhttp://www.ispot.tv/products/g5/dessert
p581
sVRetail Stores/Outdoor & Sporting Goods/Gift Cards
p582
Vhttp://www.ispot.tv/products/Ss/gift-cards
p583
sVLife & Entertainment/Sports/Golf Clubs
p584
Vhttp://www.ispot.tv/products/5H/golf-clubs
p585
sVRetail Stores/Toy Stores/Banners
p586
Vhttp://www.ispot.tv/products/qX/banners
p587
sVFood & Beverage/Canned Goods & Soups/Boxed Foods
p588
Vhttp://www.ispot.tv/products/kf/boxed-foods
p589
sVLife & Entertainment/Toys & Games/Girls
p590
Vhttp://www.ispot.tv/products/OI/girls
p591
sVVehicles/Auto Makers/In-Car Technology
p592
Vhttp://www.ispot.tv/products/oF/in-car-technology
p593
sVVehicles/Car Maintenance & Accessories/Carburetor
p594
Vhttp://www.ispot.tv/products/fg/carburetor
p595
sVFood & Beverage/Wine & Alcohol/Tequila
p596
Vhttp://www.ispot.tv/products/LG/tequila
p597
sVHome & Real Estate/Cleaners & Fresheners/Wood Surfaces
p598
Vhttp://www.ispot.tv/products/6a/wood-surfaces
p599
sVVehicles/Car Maintenance & Accessories/Bedrail Caps
p600
Vhttp://www.ispot.tv/products/T7/bedrail-caps
p601
sVFood & Beverage/Wine & Alcohol/Champagne
p602
Vhttp://www.ispot.tv/products/5V/champagne
p603
sVRetail Stores/Department Stores/Baby Lotion
p604
Vhttp://www.ispot.tv/products/5v/baby-lotion
p605
sVHealth Care & Medical/Baby Care/Wipes
p606
Vhttp://www.ispot.tv/products/56/wipes
p607
sVFood & Beverage/Dairy, Eggs & Cheese/String Cheese
p608
Vhttp://www.ispot.tv/products/BR/string-cheese
p609
sVLife & Entertainment/Sports/Billiards
p610
Vhttp://www.ispot.tv/products/1E/billiards
p611
sVLife & Entertainment/Hunting/Ammunition
p612
Vhttp://www.ispot.tv/products/SY/ammunition
p613
sVHome & Real Estate/Kitchenware/Aluminum Foil
p614
Vhttp://www.ispot.tv/products/dd/aluminum-foil
p615
sVHome & Real Estate/Cleaners & Fresheners/Hardwood Floors
p616
Vhttp://www.ispot.tv/products/Zw/hardwood-floors
p617
sVBeauty & Appearance/Skin Care/Anti-Aging
p618
Vhttp://www.ispot.tv/products/k6/anti-aging
p619
sVFood & Beverage/Frozen Foods/Dinners
p620
Vhttp://www.ispot.tv/products/bS/dinners
p621
sVFood & Beverage/Candy & Gum/Chocolate Syrup
p622
Vhttp://www.ispot.tv/products/LA/chocolate-syrup
p623
sVHome & Real Estate/Cleaners & Fresheners/Toilet
p624
Vhttp://www.ispot.tv/products/w2/toilet
p625
sVHealth Care & Medical/Pain Relief/Children
p626
Vhttp://www.ispot.tv/products/by/children
p627
sVHome & Real Estate/Cleaners & Fresheners/Litter
p628
Vhttp://www.ispot.tv/products/YH/litter
p629
sVFood & Beverage/Snack Foods/Salsa
p630
Vhttp://www.ispot.tv/products/5I/salsa
p631
sVLife & Entertainment/Movies/Combo Pack
p632
Vhttp://www.ispot.tv/products/Tk/combo-pack
p633
sVVehicles/Fuel & Motor Oil/Antifreeze and Coolant
p634
Vhttp://www.ispot.tv/products/2W/antifreeze-and-coolant
p635
sVApparel, Footwear & Accessories/Shoes & Socks/Athletic Shoes
p636
Vhttp://www.ispot.tv/products/2s/athletic-shoes
p637
sVHome & Real Estate/Cleaners & Fresheners/Stain Remover
p638
Vhttp://www.ispot.tv/products/Yo/stain-remover
p639
sVLife & Entertainment/Sports/Baseball
p640
Vhttp://www.ispot.tv/products/TF/baseball
p641
sVBusiness & Legal/Investment Services/Retirement
p642
Vhttp://www.ispot.tv/products/7j/retirement
p643
sVLife & Entertainment/News & Information/Background Checks
p644
Vhttp://www.ispot.tv/products/tj/background-checks
p645
sVFood & Beverage/Condiments, Spices & Bake/Sweetner
p646
Vhttp://www.ispot.tv/products/5K/sweetner
p647
sVHome & Real Estate/Gardening & Outdoor/Weed Killer
p648
Vhttp://www.ispot.tv/products/fH/weed-killer
p649
sVBeauty & Appearance/Hair Care/Hair Restoration
p650
Vhttp://www.ispot.tv/products/7G/hair-restoration
p651
sVApparel, Footwear & Accessories/Shoes & Socks/Nike
p652
Vhttp://www.ispot.tv/products/YF/nike
p653
sVFood & Beverage/Frozen Foods/Emergency Food
p654
Vhttp://www.ispot.tv/products/2o/emergency-food
p655
sVInsurance/Auto & General/Auto
p656
Vhttp://www.ispot.tv/products/Bh/auto
p657
sVHome & Real Estate/Tools/Weed Whacker
p658
Vhttp://www.ispot.tv/products/fW/weed-whacker
p659
sVBusiness & Legal/Consulting/Investments
p660
Vhttp://www.ispot.tv/products/1z/investments
p661
sVBusiness & Legal/Investment Services/Mortgage
p662
Vhttp://www.ispot.tv/products/Yd/mortgage
p663
sVBusiness & Legal/Banks/Prepaid Cards
p664
Vhttp://www.ispot.tv/products/d2/prepaid-cards
p665
sVVehicles/Car Maintenance & Accessories/Touchscreens
p666
Vhttp://www.ispot.tv/products/Ap/touchscreens
p667
sVHome & Real Estate/Tools/Saw
p668
Vhttp://www.ispot.tv/products/2_/saw
p669
sVRestaurants/Fast Food/Seafood
p670
Vhttp://www.ispot.tv/products/nb/seafood
p671
sVLife & Entertainment/Sports/Instructional Video
p672
Vhttp://www.ispot.tv/products/Tz/instructional-video
p673
sVHome & Real Estate/Paints & Stains/Flooring
p674
Vhttp://www.ispot.tv/products/qL/flooring
p675
sVRetail Stores/Clothing Stores/Fragrance
p676
Vhttp://www.ispot.tv/products/bp/fragrance
p677
sVBeauty & Appearance/Hair Care/Serums
p678
Vhttp://www.ispot.tv/products/fd/serums
p679
sVRetail Stores/Clothing Stores/Jacket
p680
Vhttp://www.ispot.tv/products/bC/jacket
p681
sVBeauty & Appearance/Cosmetics & Makeup/Lipsticks
p682
Vhttp://www.ispot.tv/products/YM/lipsticks
p683
sVBeauty & Appearance/Cosmetics & Makeup/Primers
p684
Vhttp://www.ispot.tv/products/oE/primers
p685
sVVehicles/Auto Parts & Repair/Service
p686
Vhttp://www.ispot.tv/products/1e/service
p687
sVApparel, Footwear & Accessories/Underwear/Diapers
p688
Vhttp://www.ispot.tv/products/OQ/diapers
p689
sVVehicles/Bicycles, Recreation & Utility/Public Transportation
p690
Vhttp://www.ispot.tv/products/gP/public-transportation
p691
sVFood & Beverage/Meat & Seafood/Ham
p692
Vhttp://www.ispot.tv/products/2U/ham
p693
sVBusiness & Legal/Investment Services/Gold
p694
Vhttp://www.ispot.tv/products/bn/gold
p695
sVRetail Stores/Grocery Stores/Sugar
p696
Vhttp://www.ispot.tv/products/1B/sugar
p697
sVFood & Beverage/Wine & Alcohol/Bourbon
p698
Vhttp://www.ispot.tv/products/7_/bourbon
p699
sVBeauty & Appearance/Cosmetics & Makeup/Concealer
p700
Vhttp://www.ispot.tv/products/2x/concealer
p701
sVLife & Entertainment/Movies/Blu-ray and DVD
p702
Vhttp://www.ispot.tv/products/IK/blu-ray-and-dvd
p703
sVRetail Stores/Office & School Supplies/App
p704
Vhttp://www.ispot.tv/products/1u/app
p705
sVFood & Beverage/Bread, Rice, Pastas & Sides/Pasta
p706
Vhttp://www.ispot.tv/products/SP/pasta
p707
sVFood & Beverage/Snack Foods/Baby Formula
p708
Vhttp://www.ispot.tv/products/kB/baby-formula
p709
sVBeauty & Appearance/Hair Care/Treatments
p710
Vhttp://www.ispot.tv/products/7Z/treatments
p711
sVBeauty & Appearance/Cosmetics & Makeup/Foundations
p712
Vhttp://www.ispot.tv/products/7v/foundations
p713
sVHealth Care & Medical/Feminine Hygeine/Vulvar Discomfort
p714
Vhttp://www.ispot.tv/products/17/vulvar-discomfort
p715
sVLife & Entertainment/Religion/CD
p716
Vhttp://www.ispot.tv/products/BB/cd
p717
sVApparel, Footwear & Accessories/Shoes & Socks/Women's Sprinkles Flower Flip Flop
p718
Vhttp://www.ispot.tv/products/kC/women's-sprinkles-flower-flip-flop
p719
sVElectronics & Communication/Consumer Software & Apps/Speech Recognition
p720
Vhttp://www.ispot.tv/products/bL/speech-recognition
p721
sVHome & Real Estate/Appliances/Ovens
p722
Vhttp://www.ispot.tv/products/Ys/ovens
p723
sVFood & Beverage/Canned Goods & Soups/Vegetables
p724
Vhttp://www.ispot.tv/products/bk/vegetables
p725
sVLife & Entertainment/Books/Addictions
p726
Vhttp://www.ispot.tv/products/BJ/addictions
p727
sVBusiness & Legal/Business Supplies & Services/Mobile Application
p728
Vhttp://www.ispot.tv/products/SG/mobile-application
p729
sVFood & Beverage/Snack Foods/Beef Stick
p730
Vhttp://www.ispot.tv/products/nW/beef-stick
p731
sVVehicles/Auto Parts & Repair/Batteries
p732
Vhttp://www.ispot.tv/products/w9/batteries
p733
sVLife & Entertainment/Hunting/Bows
p734
Vhttp://www.ispot.tv/products/SJ/bows
p735
sVFood & Beverage/Dairy, Eggs & Cheese/Butter
p736
Vhttp://www.ispot.tv/products/AF/butter
p737
sVHome & Real Estate/Power & Electricity/Lantern
p738
Vhttp://www.ispot.tv/products/qV/lantern
p739
sVHome & Real Estate/Detergents/Unstoppables
p740
Vhttp://www.ispot.tv/products/7m/unstoppables
p741
sVHealth Care & Medical/Sleep Aids/Sleep Aids
p742
Vhttp://www.ispot.tv/products/tK/sleep-aids
p743
sVElectronics & Communication/Wireless/Text Messages
p744
Vhttp://www.ispot.tv/products/wa/text-messages
p745
sVHealth Care & Medical/Bones, Joints & Muscle/Foot Mapping
p746
Vhttp://www.ispot.tv/products/qG/foot-mapping
p747
sVFood & Beverage/Canned Goods & Soups/Cooking Sauces
p748
Vhttp://www.ispot.tv/products/I9/cooking-sauces
p749
sVFood & Beverage/Snack Foods/Fruit
p750
Vhttp://www.ispot.tv/products/wE/fruit
p751
sVApparel, Footwear & Accessories/Clothing/Men's Wear
p752
Vhttp://www.ispot.tv/products/bt/men's-wear
p753
sVRestaurants/Fast Food/Tacos
p754
Vhttp://www.ispot.tv/products/2/tacos
p755
sVLife & Entertainment/Tickets/Track Set
p756
Vhttp://www.ispot.tv/products/Oq/track-set
p757
sVFood & Beverage/Dairy, Eggs & Cheese/Cheese
p758
Vhttp://www.ispot.tv/products/As/cheese
p759
sVRetail Stores/Home Improvement/Bathroom
p760
Vhttp://www.ispot.tv/products/SA/bathroom
p761
sVFood & Beverage/Wine & Alcohol/Vodka
p762
Vhttp://www.ispot.tv/products/Yc/vodka
p763
sVFood & Beverage/Breakfast & Cereal/100% Whole Wheat
p764
Vhttp://www.ispot.tv/products/Ou/100%-whole-wheat
p765
sVRetail Stores/Grocery Stores/Fruit
p766
Vhttp://www.ispot.tv/products/Lk/fruit
p767
sVFood & Beverage/Dairy, Eggs & Cheese/Cheddar Cheese
p768
Vhttp://www.ispot.tv/products/dC/cheddar-cheese
p769
sVFood & Beverage/Meat & Seafood/Beef
p770
Vhttp://www.ispot.tv/products/5j/beef
p771
sVHome & Real Estate/Pet & Pest Control/Litter
p772
Vhttp://www.ispot.tv/products/qI/litter
p773
sVElectronics & Communication/Televisions/Smart TV
p774
Vhttp://www.ispot.tv/products/Se/smart-tv
p775
sVRetail Stores/Outdoor & Sporting Goods/Boots
p776
Vhttp://www.ispot.tv/products/Zz/boots
p777
sVRestaurants/Fast Food/Burgers
p778
Vhttp://www.ispot.tv/products/oC/burgers
p779
sVLife & Entertainment/Toys & Games/Bubbles
p780
Vhttp://www.ispot.tv/products/fV/bubbles
p781
sVElectronics & Communication/Consumer Software & Apps/App
p782
Vhttp://www.ispot.tv/products/np/app
p783
sVRetail Stores/Toy Stores/Cups
p784
Vhttp://www.ispot.tv/products/qx/cups
p785
sVHealth Care & Medical/Feminine Hygeine/Tampons
p786
Vhttp://www.ispot.tv/products/ky/tampons
p787
sVElectronics & Communication/Speakers & Headphones/Speakers
p788
Vhttp://www.ispot.tv/products/18/speakers
p789
sVRestaurants/Fast Food/Drinks
p790
Vhttp://www.ispot.tv/products/ZQ/drinks
p791
sVLife & Entertainment/Movies/Blu-ray
p792
Vhttp://www.ispot.tv/products/wh/blu-ray
p793
sVHealth Care & Medical/Supplies/Hearing Aids
p794
Vhttp://www.ispot.tv/products/IV/hearing-aids
p795
sVRetail Stores/Clothing Stores/Men's Wear
p796
Vhttp://www.ispot.tv/products/SR/men's-wear
p797
sVFood & Beverage/Spreads, Sauces & Salad Dressings/Cooking Oil
p798
Vhttp://www.ispot.tv/products/dc/cooking-oil
p799
sVFood & Beverage/Beer/Amber
p800
Vhttp://www.ispot.tv/products/AO/amber
p801
sVFood & Beverage/Coffee & Tea/Tea Mix
p802
Vhttp://www.ispot.tv/products/Oz/tea-mix
p803
sVFood & Beverage/Water/Flavored
p804
Vhttp://www.ispot.tv/products/wW/flavored
p805
sVHome & Real Estate/Housing & Home Improvement/Adhesive
p806
Vhttp://www.ispot.tv/products/6w/adhesive
p807
sVElectronics & Communication/Internet Services/Digital Media Player
p808
Vhttp://www.ispot.tv/products/Sf/digital-media-player
p809
sVFood & Beverage/Dairy, Eggs & Cheese/Swiss Cheese
p810
Vhttp://www.ispot.tv/products/dM/swiss-cheese
p811
sVRetail Stores/Department Stores/Home Decor
p812
Vhttp://www.ispot.tv/products/f7/home-decor
p813
sVHealth Care & Medical/Weight Loss/Weight Loss Prorgram
p814
Vhttp://www.ispot.tv/products/5n/weight-loss-prorgram
p815
sVFood & Beverage/Fruit Juices & Drinks/Smoothies
p816
Vhttp://www.ispot.tv/products/q4/smoothies
p817
sVBeauty & Appearance/Fragrances/Fragrance
p818
Vhttp://www.ispot.tv/products/gh/fragrance
p819
sVHome & Real Estate/Cleaners & Fresheners/Septic System Treatment
p820
Vhttp://www.ispot.tv/products/7z/septic-system-treatment
p821
sVHealth Care & Medical/Gyms & Fitness/Exercise Equipment
p822
Vhttp://www.ispot.tv/products/5y/exercise-equipment
p823
sVElectronics & Communication/Speakers & Headphones/On-Ear Headphones
p824
Vhttp://www.ispot.tv/products/AA/on-ear-headphones
p825
sVBusiness & Legal/Loans & Credits/Mobile Application
p826
Vhttp://www.ispot.tv/products/t1/mobile-application
p827
sVHome & Real Estate/Appliances/Vacuum Cleaning Robot
p828
Vhttp://www.ispot.tv/products/qd/vacuum-cleaning-robot
p829
sVVehicles/Bicycles, Recreation & Utility/Boats
p830
Vhttp://www.ispot.tv/products/TN/boats
p831
sVHome & Real Estate/Tools/Leaf Blower
p832
Vhttp://www.ispot.tv/products/oJ/leaf-blower
p833
sVHealth Care & Medical/Vitamins & Supplements/Fish Oil
p834
Vhttp://www.ispot.tv/products/os/fish-oil
p835
sVVehicles/Car Maintenance & Accessories/Fender Flares
p836
Vhttp://www.ispot.tv/products/fK/fender-flares
p837
sVRetail Stores/Outdoor & Sporting Goods/Life Jackets
p838
Vhttp://www.ispot.tv/products/f_/life-jackets
p839
sVBusiness & Legal/Investment Services/401K
p840
Vhttp://www.ispot.tv/products/AV/401k
p841
sVVehicles/Auto Parts & Repair/Paint
p842
Vhttp://www.ispot.tv/products/u/paint
p843
sVLife & Entertainment/Movies/App
p844
Vhttp://www.ispot.tv/products/Bt/app
p845
sVHome & Real Estate/Kitchenware/Toaster
p846
Vhttp://www.ispot.tv/products/1F/toaster
p847
sVLife & Entertainment/Hunting/Animal Calls
p848
Vhttp://www.ispot.tv/products/Sa/animal-calls
p849
sVFood & Beverage/Breakfast & Cereal/Biscuits
p850
Vhttp://www.ispot.tv/products/Os/biscuits
p851
sVHome & Real Estate/Appliances/Blender
p852
Vhttp://www.ispot.tv/products/gs/blender
p853
sVFood & Beverage/Snack Foods/Whipped Cream
p854
Vhttp://www.ispot.tv/products/Oa/whipped-cream
p855
sVHealth Care & Medical/Hospitals & Treatment Centers/Pancreatic Cancer
p856
Vhttp://www.ispot.tv/products/O0/pancreatic-cancer
p857
sVRestaurants/Sit-Down/Chinese
p858
Vhttp://www.ispot.tv/products/B5/chinese
p859
sVBusiness & Legal/Consulting/Tax Software
p860
Vhttp://www.ispot.tv/products/5J/tax-software
p861
sVElectronics & Communication/Cameras/App
p862
Vhttp://www.ispot.tv/products/gN/app
p863
sVLife & Entertainment/TV Station/Games
p864
Vhttp://www.ispot.tv/products/2d/games
p865
sVHealth Care & Medical/Eye Care & Glasses/Sunglasses
p866
Vhttp://www.ispot.tv/products/k3/sunglasses
p867
sVFood & Beverage/Coffee & Tea/Creamer
p868
Vhttp://www.ispot.tv/products/IO/creamer
p869
sVLife & Entertainment/Hobbies & Collectibles/CD
p870
Vhttp://www.ispot.tv/products/1s/cd
p871
sVHome & Real Estate/Cleaners & Fresheners/Bleach
p872
Vhttp://www.ispot.tv/products/ZH/bleach
p873
sVBeauty & Appearance/Cosmetics & Makeup/Eye Liner
p874
Vhttp://www.ispot.tv/products/5U/eye-liner
p875
sVHome & Real Estate/Gardening & Outdoor/Turf Builder
p876
Vhttp://www.ispot.tv/products/fh/turf-builder
p877
sVVehicles/Car Maintenance & Accessories/Exhaust
p878
Vhttp://www.ispot.tv/products/go/exhaust
p879
sVFood & Beverage/Meat & Seafood/Deli Meat
p880
Vhttp://www.ispot.tv/products/dE/deli-meat
p881
sVRetail Stores/Department Stores/Gift Cards
p882
Vhttp://www.ispot.tv/products/Sr/gift-cards
p883
sVLife & Entertainment/Sports/Wakeboarding
p884
Vhttp://www.ispot.tv/products/Tl/wakeboarding
p885
sVFood & Beverage/Candy & Gum/Jellybeans
p886
Vhttp://www.ispot.tv/products/fy/jellybeans
p887
sVHome & Real Estate/Gardening & Outdoor/Mower
p888
Vhttp://www.ispot.tv/products/fu/mower
p889
sVApparel, Footwear & Accessories/Shoes & Socks/Sneakers
p890
Vhttp://www.ispot.tv/products/fY/sneakers
p891
sVVehicles/Bicycles, Recreation & Utility/Boat Engines
p892
Vhttp://www.ispot.tv/products/B4/boat-engines
p893
sVFood & Beverage/Fruit Juices & Drinks/Orange Juice
p894
Vhttp://www.ispot.tv/products/7c/orange-juice
p895
sVElectronics & Communication/Cameras/Digital Camera
p896
Vhttp://www.ispot.tv/products/D/digital-camera
p897
sVHealth Care & Medical/Oral Care/Teeth Grinding
p898
Vhttp://www.ispot.tv/products/qT/teeth-grinding
p899
sVFood & Beverage/Meat & Seafood/Pork
p900
Vhttp://www.ispot.tv/products/bZ/pork
p901
sVHome & Real Estate/Toiletries & Paper Products/Napkins
p902
Vhttp://www.ispot.tv/products/YD/napkins
p903
sVElectronics & Communication/Mobile Devices/Screen Protection
p904
Vhttp://www.ispot.tv/products/SW/screen-protection
p905
sVRestaurants/Sit-Down/Steaks
p906
Vhttp://www.ispot.tv/products/7q/steaks
p907
sVBeauty & Appearance/Cosmetics & Makeup/Makeup Removers
p908
Vhttp://www.ispot.tv/products/qv/makeup-removers
p909
sVLife & Entertainment/Sports/Golf
p910
Vhttp://www.ispot.tv/products/Op/golf
p911
sVFood & Beverage/Ice Cream & Frozen Treats/Berries
p912
Vhttp://www.ispot.tv/products/62/berries
p913
sVHome & Real Estate/Tools/Super Glue
p914
Vhttp://www.ispot.tv/products/L8/super-glue
p915
sVFood & Beverage/Breakfast & Cereal/Breakfast Sandwich
p916
Vhttp://www.ispot.tv/products/7u/breakfast-sandwich
p917
sVFood & Beverage/Fruit Juices & Drinks/Apple Juice
p918
Vhttp://www.ispot.tv/products/ZD/apple-juice
p919
sVFood & Beverage/Beer/Mexican
p920
Vhttp://www.ispot.tv/products/Be/mexican
p921
sVLife & Entertainment/Hobbies & Collectibles/Metal Detectors
p922
Vhttp://www.ispot.tv/products/TC/metal-detectors
p923
sVHome & Real Estate/Pet & Pest Control/Pet Tracker
p924
Vhttp://www.ispot.tv/products/bP/pet-tracker
p925
sVApparel, Footwear & Accessories/Shoes & Socks/Kids
p926
Vhttp://www.ispot.tv/products/w3/kids
p927
sVRetail Stores/Clothing Stores/Sweatshirts
p928
Vhttp://www.ispot.tv/products/BH/sweatshirts
p929
sVElectronics & Communication/Televisions/DLP
p930
Vhttp://www.ispot.tv/products/ZZ/dlp
p931
sVFood & Beverage/Wine & Alcohol/Malt Liquor and Mixed Drinks
p932
Vhttp://www.ispot.tv/products/du/malt-liquor-and-mixed-drinks
p933
sVFood & Beverage/Snack Foods/Graham Crackers
p934
Vhttp://www.ispot.tv/products/Ll/graham-crackers
p935
sVHealth Care & Medical/Oral Care/Teeth Whitening
p936
Vhttp://www.ispot.tv/products/OB/teeth-whitening
p937
sVBeauty & Appearance/Skin Care/Wart Removers
p938
Vhttp://www.ispot.tv/products/nz/wart-removers
p939
sVHome & Real Estate/Housing & Home Improvement/Air Filter
p940
Vhttp://www.ispot.tv/products/6t/air-filter
p941
sVHealth Care & Medical/Vitamins & Supplements/Joints
p942
Vhttp://www.ispot.tv/products/bw/joints
p943
sVHealth Care & Medical/Supplies/Blood Glucose Monitoring System
p944
Vhttp://www.ispot.tv/products/LF/blood-glucose-monitoring-system
p945
sVFood & Beverage/Snack Foods/Peanut Butter
p946
Vhttp://www.ispot.tv/products/kn/peanut-butter
p947
sVRestaurants/Sit-Down/Chicken
p948
Vhttp://www.ispot.tv/products/A5/chicken
p949
sVBeauty & Appearance/Skin Care/Cleansers
p950
Vhttp://www.ispot.tv/products/78/cleansers
p951
sVLife & Entertainment/TV Station/Blu-ray
p952
Vhttp://www.ispot.tv/products/Ik/blu-ray
p953
sVBeauty & Appearance/Hair Care/Gel
p954
Vhttp://www.ispot.tv/products/64/gel
p955
sVInsurance/Life & Supplementary/Term Life
p956
Vhttp://www.ispot.tv/products/dZ/term-life
p957
sVApparel, Footwear & Accessories/Accessories/Necklaces
p958
Vhttp://www.ispot.tv/products/bA/necklaces
p959
sVFood & Beverage/Breakfast & Cereal/Sandwich
p960
Vhttp://www.ispot.tv/products/O_/sandwich
p961
sVLife & Entertainment/Religion/Magazine
p962
Vhttp://www.ispot.tv/products/Tx/magazine
p963
sVElectronics & Communication/Wireless/International Calling
p964
Vhttp://www.ispot.tv/products/6m/international-calling
p965
sVPolitics, Government & Organizations/Government Services/Mail Delivery
p966
Vhttp://www.ispot.tv/products/Sd/mail-delivery
p967
sVLife & Entertainment/Music/Song
p968
Vhttp://www.ispot.tv/products/g_/song
p969
sVElectronics & Communication/Cable & Satellite TV/Online Security
p970
Vhttp://www.ispot.tv/products/LP/online-security
p971
sVFood & Beverage/Frozen Foods/Chicken
p972
Vhttp://www.ispot.tv/products/55/chicken
p973
sVLife & Entertainment/Sports/Fantasy Football
p974
Vhttp://www.ispot.tv/products/Ar/fantasy-football
p975
sVHealth Care & Medical/Supplies/Catheter
p976
Vhttp://www.ispot.tv/products/Z2/catheter
p977
sVFood & Beverage/Soda/Ginger Ale
p978
Vhttp://www.ispot.tv/products/bv/ginger-ale
p979
sVHome & Real Estate/Tools/Vise
p980
Vhttp://www.ispot.tv/products/29/vise
p981
sVElectronics & Communication/Computers & Tablets/Accessories
p982
Vhttp://www.ispot.tv/products/dg/accessories
p983
sVLife & Entertainment/Music/Guitar
p984
Vhttp://www.ispot.tv/products/6G/guitar
p985
sVLife & Entertainment/TV Station/Video Game
p986
Vhttp://www.ispot.tv/products/28/video-game
p987
sVFood & Beverage/Coffee & Tea/Latte
p988
Vhttp://www.ispot.tv/products/bG/latte
p989
sVElectronics & Communication/Speakers & Headphones/Earbuds
p990
Vhttp://www.ispot.tv/products/ww/earbuds
p991
sVInsurance/Health/Dental
p992
Vhttp://www.ispot.tv/products/53/dental
p993
sVHome & Real Estate/Bedding/Memory Foam
p994
Vhttp://www.ispot.tv/products/nT/memory-foam
p995
sVFood & Beverage/Pets/Apps
p996
Vhttp://www.ispot.tv/products/Bx/apps
p997
sVHealth Care & Medical/Antacids & Stomach/Stool Softener
p998
Vhttp://www.ispot.tv/products/qO/stool-softener
p999
sVRetail Stores/Department Stores/Fragrance
p1000
Vhttp://www.ispot.tv/products/2N/fragrance
p1001
sVFood & Beverage/Breakfast & Cereal/Granola
p1002
Vhttp://www.ispot.tv/products/ng/granola
p1003
sVHome & Real Estate/Gardening & Outdoor/Flowers
p1004
Vhttp://www.ispot.tv/products/TL/flowers
p1005
sVLife & Entertainment/Toys & Games/Card Games
p1006
Vhttp://www.ispot.tv/products/Sq/card-games
p1007
sVHealth Care & Medical/Oral Care/Toothpaste
p1008
Vhttp://www.ispot.tv/products/to/toothpaste
p1009
sVHome & Real Estate/Housing & Home Improvement/Sealant
p1010
Vhttp://www.ispot.tv/products/Tq/sealant
p1011
sVApparel, Footwear & Accessories/Shoes & Socks/Boots
p1012
Vhttp://www.ispot.tv/products/2G/boots
p1013
sVHealth Care & Medical/Feminine Hygeine/Wipes
p1014
Vhttp://www.ispot.tv/products/Yj/wipes
p1015
sVHealth Care & Medical/Supplies/Inhaler
p1016
Vhttp://www.ispot.tv/products/Zo/inhaler
p1017
sVVehicles/Bicycles, Recreation & Utility/Motorcycle
p1018
Vhttp://www.ispot.tv/products/2w/motorcycle
p1019
sVApparel, Footwear & Accessories/Underwear/Lingerie
p1020
Vhttp://www.ispot.tv/products/fD/lingerie
p1021
sVHealth Care & Medical/Baby Care/App
p1022
Vhttp://www.ispot.tv/products/6n/app
p1023
sVHome & Real Estate/Toiletries & Paper Products/Paper Towels
p1024
Vhttp://www.ispot.tv/products/AI/paper-towels
p1025
sVHealth Care & Medical/Bones, Joints & Muscle/Arthritis
p1026
Vhttp://www.ispot.tv/products/ns/arthritis
p1027
sVRetail Stores/Clothing Stores/Women
p1028
Vhttp://www.ispot.tv/products/I/women
p1029
sVApparel, Footwear & Accessories/Clothing/Jeans
p1030
Vhttp://www.ispot.tv/products/I6/jeans
p1031
sVFood & Beverage/Spreads, Sauces & Salad Dressings/Cooking Spray
p1032
Vhttp://www.ispot.tv/products/b7/cooking-spray
p1033
sVApparel, Footwear & Accessories/Clothing/Costumes
p1034
Vhttp://www.ispot.tv/products/bj/costumes
p1035
sVBusiness & Legal/Investment Services/Application
p1036
Vhttp://www.ispot.tv/products/AP/application
p1037
sVBeauty & Appearance/Skin Care/Creams & Lotions
p1038
Vhttp://www.ispot.tv/products/Zm/creams-&-lotions
p1039
sVFood & Beverage/Frozen Foods/Seafood
p1040
Vhttp://www.ispot.tv/products/5_/seafood
p1041
sVInsurance/Health/Babies
p1042
Vhttp://www.ispot.tv/products/Sw/babies
p1043
sVRestaurants/Fast Food/Coffee
p1044
Vhttp://www.ispot.tv/products/d9/coffee
p1045
sVVehicles/Auto Parts & Repair/Metal End Caps
p1046
Vhttp://www.ispot.tv/products/tp/metal-end-caps
p1047
sVVehicles/Car Maintenance & Accessories/Carpet Liners
p1048
Vhttp://www.ispot.tv/products/YA/carpet-liners
p1049
sVHealth Care & Medical/Gyms & Fitness/Exercise Bike
p1050
Vhttp://www.ispot.tv/products/1c/exercise-bike
p1051
sVLife & Entertainment/Toys & Games/Remote Controlled
p1052
Vhttp://www.ispot.tv/products/bV/remote-controlled
p1053
sVLife & Entertainment/Toys & Games/Educational
p1054
Vhttp://www.ispot.tv/products/gb/educational
p1055
sVRetail Stores/Grocery Stores/Soda
p1056
Vhttp://www.ispot.tv/products/gf/soda
p1057
sVFood & Beverage/Snack Foods/Bottled Water
p1058
Vhttp://www.ispot.tv/products/kP/bottled-water
p1059
sVFood & Beverage/Breakfast & Cereal/Cookies
p1060
Vhttp://www.ispot.tv/products/OE/cookies
p1061
sVVehicles/Auto Makers/Coupe
p1062
Vhttp://www.ispot.tv/products/j/coupe
p1063
sVHealth Care & Medical/Feminine Hygeine/Pregnancy Tests
p1064
Vhttp://www.ispot.tv/products/Br/pregnancy-tests
p1065
sVFood & Beverage/Wine & Alcohol/Rum
p1066
Vhttp://www.ispot.tv/products/Lp/rum
p1067
sVRestaurants/Pizza/Chicken Wings
p1068
Vhttp://www.ispot.tv/products/Om/chicken-wings
p1069
sVRetail Stores/Outdoor & Sporting Goods/Apparel
p1070
Vhttp://www.ispot.tv/products/dj/apparel
p1071
sVLife & Entertainment/Video Games/Video Games
p1072
Vhttp://www.ispot.tv/products/S6/video-games
p1073
sVLife & Entertainment/Video Games/Apps
p1074
Vhttp://www.ispot.tv/products/S5/apps
p1075
sVFood & Beverage/Breakfast & Cereal/Waffles
p1076
Vhttp://www.ispot.tv/products/7x/waffles
p1077
sVHealth Care & Medical/Feminine Hygeine/Lubricant
p1078
Vhttp://www.ispot.tv/products/21/lubricant
p1079
sVHealth Care & Medical/Vitamins & Supplements/Creatine
p1080
Vhttp://www.ispot.tv/products/5p/-creatine
p1081
sVFood & Beverage/Dairy, Eggs & Cheese/Condensed Milk
p1082
Vhttp://www.ispot.tv/products/Tp/condensed-milk
p1083
sVApparel, Footwear & Accessories/Accessories/Keychain camera
p1084
Vhttp://www.ispot.tv/products/TA/keychain-camera
p1085
sVLife & Entertainment/Movies/blu
p1086
Vhttp://www.ispot.tv/products/By/blu
p1087
sVLife & Entertainment/Toys & Games/Scooter
p1088
Vhttp://www.ispot.tv/products/OO/scooter
p1089
sVFood & Beverage/Frozen Foods/Breakfast
p1090
Vhttp://www.ispot.tv/products/Ts/breakfast
p1091
sVHealth Care & Medical/Antacids & Stomach/Heartburn
p1092
Vhttp://www.ispot.tv/products/nJ/heartburn
p1093
sVVehicles/Car Maintenance & Accessories/Wipes
p1094
Vhttp://www.ispot.tv/products/tR/wipes
p1095
sVHealth Care & Medical/Cold, Flu & Allergy Medication/Cough Drops
p1096
Vhttp://www.ispot.tv/products/Zs/cough-drops
p1097
sVHome & Real Estate/Cleaners & Fresheners/Spray Cleaner
p1098
Vhttp://www.ispot.tv/products/dG/spray-cleaner
p1099
sVRetail Stores/Outdoor & Sporting Goods/Fishing
p1100
Vhttp://www.ispot.tv/products/dX/fishing
p1101
sVElectronics & Communication/Wireless/Card Reader
p1102
Vhttp://www.ispot.tv/products/kS/card-reader
p1103
sVFood & Beverage/Meat & Seafood/Lunchmeat
p1104
Vhttp://www.ispot.tv/products/Iy/lunchmeat
p1105
sVBusiness & Legal/Investment Services/Apps
p1106
Vhttp://www.ispot.tv/products/7i/apps
p1107
sVFood & Beverage/Spreads, Sauces & Salad Dressings/Dips
p1108
Vhttp://www.ispot.tv/products/Ty/dips
p1109
sVHealth Care & Medical/Pain Relief/Alzheimer's Disease
p1110
Vhttp://www.ispot.tv/products/qz/alzheimer's-disease
p1111
sVHealth Care & Medical/Weight Loss/Dietary Patch
p1112
Vhttp://www.ispot.tv/products/gD/dietary-patch
p1113
sVLife & Entertainment/Tickets/Concert
p1114
Vhttp://www.ispot.tv/products/16/concert
p1115
sVBeauty & Appearance/Cosmetics & Makeup/Mascaras
p1116
Vhttp://www.ispot.tv/products/4/mascaras
p1117
sVRestaurants/Sit-Down/Italian
p1118
Vhttp://www.ispot.tv/products/Ax/italian
p1119
sVRetail Stores/Outdoor & Sporting Goods/Ammunition
p1120
Vhttp://www.ispot.tv/products/I5/ammunition
p1121
sVHome & Real Estate/Appliances/Juicer
p1122
Vhttp://www.ispot.tv/products/5G/juicer
p1123
sVHome & Real Estate/Cleaners & Fresheners/Oil Diffuser
p1124
Vhttp://www.ispot.tv/products/YZ/oil-diffuser
p1125
sVHome & Real Estate/Gardening & Outdoor/Fertilizer
p1126
Vhttp://www.ispot.tv/products/fa/fertilizer
p1127
sVFood & Beverage/Spreads, Sauces & Salad Dressings/Salad Dressing
p1128
Vhttp://www.ispot.tv/products/To/salad-dressing
p1129
sVHealth Care & Medical/Supplies/Testosterone
p1130
Vhttp://www.ispot.tv/products/n2/testosterone
p1131
sVRestaurants/Pizza/Breadsticks
p1132
Vhttp://www.ispot.tv/products/57/breadsticks
p1133
sVFood & Beverage/Breakfast & Cereal/Shake
p1134
Vhttp://www.ispot.tv/products/Tu/shake
p1135
sVLife & Entertainment/Sports/Wrestling
p1136
Vhttp://www.ispot.tv/products/fb/wrestling
p1137
sVHealth Care & Medical/Cold, Flu & Allergy Medication/Nasal Decongestant
p1138
Vhttp://www.ispot.tv/products/SI/nasal-decongestant
p1139
sVBeauty & Appearance/Fragrances/Atomizer
p1140
Vhttp://www.ispot.tv/products/f1/atomizer
p1141
sVFood & Beverage/Wine & Alcohol/Sake
p1142
Vhttp://www.ispot.tv/products/6x/sake
p1143
sVVehicles/Auto Makers/Maintenance
p1144
Vhttp://www.ispot.tv/products/wO/maintenance
p1145
sVFood & Beverage/Frozen Foods/Lasagna
p1146
Vhttp://www.ispot.tv/products/BC/lasagna
p1147
sVElectronics & Communication/Televisions/Flat Screen
p1148
Vhttp://www.ispot.tv/products/oH/flat-screen
p1149
sVFood & Beverage/Water/Filters
p1150
Vhttp://www.ispot.tv/products/LH/filters
p1151
sVHome & Real Estate/Power & Electricity/AA
p1152
Vhttp://www.ispot.tv/products/qo/aa
p1153
sVLife & Entertainment/Video Games/Gaming System
p1154
Vhttp://www.ispot.tv/products/Sg/gaming-system
p1155
sVHealth Care & Medical/Cold, Flu & Allergy Medication/Allergy
p1156
Vhttp://www.ispot.tv/products/qq/allergy
p1157
sVHome & Real Estate/Tools/Leaf Vacuum
p1158
Vhttp://www.ispot.tv/products/g2/leaf-vacuum
p1159
sVRetail Stores/Outdoor & Sporting Goods/Guns
p1160
Vhttp://www.ispot.tv/products/I1/guns
p1161
sVHome & Real Estate/Cleaners & Fresheners/Produce Cleaner
p1162
Vhttp://www.ispot.tv/products/o9/produce-cleaner
p1163
sVHealth Care & Medical/Vitamins & Supplements/Prostate
p1164
Vhttp://www.ispot.tv/products/Iu/prostate
p1165
sVLife & Entertainment/News & Information/Website
p1166
Vhttp://www.ispot.tv/products/fM/website
p1167
sVLife & Entertainment/TV Station/DVD
p1168
Vhttp://www.ispot.tv/products/dt/dvd
p1169
sVBusiness & Legal/Loans & Credits/short term loan
p1170
Vhttp://www.ispot.tv/products/gB/short-term-loan
p1171
sVHealth Care & Medical/Pets/Dog
p1172
Vhttp://www.ispot.tv/products/tM/dog
p1173
sVFood & Beverage/Snack Foods/Dessert
p1174
Vhttp://www.ispot.tv/products/Ic/dessert
p1175
sVHealth Care & Medical/Eye Care & Glasses/Hearing Aids
p1176
Vhttp://www.ispot.tv/products/2L/hearing-aids
p1177
sVHome & Real Estate/Appliances/Metal Detector
p1178
Vhttp://www.ispot.tv/products/wk/metal-detector
p1179
sVRetail Stores/Online & Auction Websites/Sporting Goods
p1180
Vhttp://www.ispot.tv/products/SQ/sporting-goods
p1181
sVHealth Care & Medical/Baby Care/Cleanser
p1182
Vhttp://www.ispot.tv/products/Tj/cleanser
p1183
sVFood & Beverage/Condiments, Spices & Bake/Steak Sauce
p1184
Vhttp://www.ispot.tv/products/fv/steak-sauce
p1185
sVRetail Stores/Online & Auction Websites/App
p1186
Vhttp://www.ispot.tv/products/2y/app
p1187
sVLife & Entertainment/Hunting/Fishing
p1188
Vhttp://www.ispot.tv/products/SL/fishing
p1189
sVFood & Beverage/Snack Foods/Granola Bars
p1190
Vhttp://www.ispot.tv/products/kR/granola-bars
p1191
sVApparel, Footwear & Accessories/Shoes & Socks/Running Shoes
p1192
Vhttp://www.ispot.tv/products/AB/running-shoes
p1193
sVBeauty & Appearance/Shaving and Hair Removal/Shaving Cream
p1194
Vhttp://www.ispot.tv/products/24/shaving-cream
p1195
sVFood & Beverage/Snack Foods/Chips
p1196
Vhttp://www.ispot.tv/products/6L/chips
p1197
sVHome & Real Estate/Garbage & Freezer Bags/Storage Bags
p1198
Vhttp://www.ispot.tv/products/5C/storage-bags
p1199
sVHome & Real Estate/Cleaners & Fresheners/Wipes
p1200
Vhttp://www.ispot.tv/products/7M/wipes
p1201
sVBusiness & Legal/Banks/Rewards
p1202
Vhttp://www.ispot.tv/products/ks/rewards
p1203
sVFood & Beverage/Fruit Juices & Drinks/Lemonade
p1204
Vhttp://www.ispot.tv/products/TO/lemonade
p1205
sVBeauty & Appearance/Cosmetics & Makeup/Lip Gloss
p1206
Vhttp://www.ispot.tv/products/nN/lip-gloss
p1207
sVLife & Entertainment/News & Information/Magazine
p1208
Vhttp://www.ispot.tv/products/6D/magazine
p1209
sVRetail Stores/Outdoor & Sporting Goods/Bicycles
p1210
Vhttp://www.ispot.tv/products/dh/bicycles
p1211
sVLife & Entertainment/Toys & Games/Board Game
p1212
Vhttp://www.ispot.tv/products/t4/board-game
p1213
sVLife & Entertainment/Music/CD
p1214
Vhttp://www.ispot.tv/products/tk/cd
p1215
sVHome & Real Estate/Detergents/Stain Remover
p1216
Vhttp://www.ispot.tv/products/YP/stain-remover
p1217
sVFood & Beverage/Soda/Lemon-Lime
p1218
Vhttp://www.ispot.tv/products/t8/lemon-lime
p1219
sVLife & Entertainment/Movies/In Theaters
p1220
Vhttp://www.ispot.tv/products/6b/in-theaters
p1221
sVFood & Beverage/Bread, Rice, Pastas & Sides/Boxed Food
p1222
Vhttp://www.ispot.tv/products/oh/boxed-food
p1223
sVFood & Beverage/Meat & Seafood/Deli Meats
p1224
Vhttp://www.ispot.tv/products/th/deli-meats
p1225
sVBeauty & Appearance/Hair Care/Relaxers
p1226
Vhttp://www.ispot.tv/products/T1/relaxers
p1227
sVElectronics & Communication/Wireless/Cellular Phone Plans
p1228
Vhttp://www.ispot.tv/products/wL/cellular-phone-plans
p1229
sVHealth Care & Medical/Pain Relief/Aspirin
p1230
Vhttp://www.ispot.tv/products/qp/aspirin
p1231
sVFood & Beverage/Wine & Alcohol/Scotch
p1232
Vhttp://www.ispot.tv/products/qU/scotch
p1233
sVFood & Beverage/Spreads, Sauces & Salad Dressings/Applesauce
p1234
Vhttp://www.ispot.tv/products/2H/applesauce
p1235
sVElectronics & Communication/Wireless/Smartphone
p1236
Vhttp://www.ispot.tv/products/5o/smartphone
p1237
sVHealth Care & Medical/Oral Care/Mouthwash
p1238
Vhttp://www.ispot.tv/products/tZ/mouthwash
p1239
sVHome & Real Estate/Power & Electricity/Batteries
p1240
Vhttp://www.ispot.tv/products/BV/batteries
p1241
sVLife & Entertainment/Video Games/Online
p1242
Vhttp://www.ispot.tv/products/S1/online
p1243
sVApparel, Footwear & Accessories/Shoes & Socks/Outdoors
p1244
Vhttp://www.ispot.tv/products/1r/outdoors
p1245
sVVehicles/Auto Makers/Hatchback
p1246
Vhttp://www.ispot.tv/products/om/hatchback
p1247
sVFood & Beverage/Snack Foods/Snack Bars
p1248
Vhttp://www.ispot.tv/products/kL/snack-bars
p1249
sVLife & Entertainment/Hunting/Scent Blockers
p1250
Vhttp://www.ispot.tv/products/Sx/scent-blockers
p1251
sVRetail Stores/Clothing Stores/T-shirts
p1252
Vhttp://www.ispot.tv/products/1i/t-shirts
p1253
sVRestaurants/Fast Food/Kids
p1254
Vhttp://www.ispot.tv/products/IF/kids
p1255
sVLife & Entertainment/Toys & Games/Tablet
p1256
Vhttp://www.ispot.tv/products/ta/tablet
p1257
sVHome & Real Estate/Appliances/Hard-Floor Cleaner
p1258
Vhttp://www.ispot.tv/products/5e/hard-floor-cleaner
p1259
sVHome & Real Estate/Gardening & Outdoor/Lawn Trimmers
p1260
Vhttp://www.ispot.tv/products/5A/lawn-trimmers
p1261
sVHealth Care & Medical/Bones, Joints & Muscle/Depression
p1262
Vhttp://www.ispot.tv/products/LX/depression
p1263
sVLife & Entertainment/Tickets/Apps
p1264
Vhttp://www.ispot.tv/products/SN/apps
p1265
sVFood & Beverage/Snack Foods/Beef Jerky
p1266
Vhttp://www.ispot.tv/products/6k/beef-jerky
p1267
sVFood & Beverage/Fruit Juices & Drinks/Blueberry Juice
p1268
Vhttp://www.ispot.tv/products/TK/blueberry-juice
p1269
sVFood & Beverage/Bread, Rice, Pastas & Sides/Boxed Rice
p1270
Vhttp://www.ispot.tv/products/N/boxed-rice
p1271
sVPolitics, Government & Organizations/Government Services/Flood Insurance
p1272
Vhttp://www.ispot.tv/products/wJ/flood-insurance
p1273
sVRestaurants/Fast Food/Salad
p1274
Vhttp://www.ispot.tv/products/k/salad
p1275
sVElectronics & Communication/Consumer Software & Apps/Apps
p1276
Vhttp://www.ispot.tv/products/BZ/apps
p1277
sVRetail Stores/Clothing Stores/Jeans
p1278
Vhttp://www.ispot.tv/products/14/jeans
p1279
sVLife & Entertainment/Music/Mobile App
p1280
Vhttp://www.ispot.tv/products/TP/mobile-app
p1281
sVHome & Real Estate/Appliances/Lawnmower
p1282
Vhttp://www.ispot.tv/products/dO/lawnmower
p1283
sVHome & Real Estate/Cleaners & Fresheners/Hand Soap
p1284
Vhttp://www.ispot.tv/products/YV/hand-soap
p1285
sVHome & Real Estate/Appliances/Dryer
p1286
Vhttp://www.ispot.tv/products/ZL/dryer
p1287
sVPolitics, Government & Organizations/Government Services/Schools
p1288
Vhttp://www.ispot.tv/products/wN/schools
p1289
sVElectronics & Communication/Wireless/Business
p1290
Vhttp://www.ispot.tv/products/2f/business
p1291
sVHome & Real Estate/Tools/Power Tools
p1292
Vhttp://www.ispot.tv/products/BM/power-tools
p1293
sVHealth Care & Medical/Weight Loss/Supplements
p1294
Vhttp://www.ispot.tv/products/T5/supplements
p1295
sVRetail Stores/Clothing Stores/Lingerie
p1296
Vhttp://www.ispot.tv/products/2c/lingerie
p1297
sVVehicles/Car Maintenance & Accessories/Restoration
p1298
Vhttp://www.ispot.tv/products/TB/restoration
p1299
sVHome & Real Estate/Detergents/Air Fresheners
p1300
Vhttp://www.ispot.tv/products/YJ/air-fresheners
p1301
sVHealth Care & Medical/Baby Care/Diapers
p1302
Vhttp://www.ispot.tv/products/fP/diapers
p1303
sVVehicles/Car Maintenance & Accessories/Air Filters
p1304
Vhttp://www.ispot.tv/products/TE/air-filters
p1305
sVFood & Beverage/Dairy, Eggs & Cheese/Iced Coffee
p1306
Vhttp://www.ispot.tv/products/Lg/iced-coffee
p1307
sVFood & Beverage/Snack Foods/Potato Chips
p1308
Vhttp://www.ispot.tv/products/7W/potato-chips
p1309
sVHome & Real Estate/Cleaners & Fresheners/Glass
p1310
Vhttp://www.ispot.tv/products/oW/glass
p1311
sVHealth Care & Medical/Vitamins & Supplements/Probiotics
p1312
Vhttp://www.ispot.tv/products/nn/probiotics
p1313
sVFood & Beverage/Frozen Foods/Microwaveable Turnovers
p1314
Vhttp://www.ispot.tv/products/TR/microwaveable-turnovers
p1315
sVFood & Beverage/Spreads, Sauces & Salad Dressings/Preserves
p1316
Vhttp://www.ispot.tv/products/Ze/preserves
p1317
sVHealth Care & Medical/Cold, Flu & Allergy Medication/Cold Medicine
p1318
Vhttp://www.ispot.tv/products/n6/cold-medicine
p1319
sVLife & Entertainment/Toys & Games/Boats
p1320
Vhttp://www.ispot.tv/products/tU/boats
p1321
sVRetail Stores/Office & School Supplies/Cards
p1322
Vhttp://www.ispot.tv/products/6B/cards
p1323
sVLife & Entertainment/Music/Drums
p1324
Vhttp://www.ispot.tv/products/OD/drums
p1325
sVFood & Beverage/Bread, Rice, Pastas & Sides/Frozen
p1326
Vhttp://www.ispot.tv/products/A2/frozen
p1327
sVHome & Real Estate/Housing & Home Improvement/Insulation
p1328
Vhttp://www.ispot.tv/products/gV/insulation
p1329
sVHome & Real Estate/Tools/Flashlight
p1330
Vhttp://www.ispot.tv/products/1d/flashlight
p1331
sVHealth Care & Medical/Feminine Hygeine/Feminine Wash
p1332
Vhttp://www.ispot.tv/products/kc/feminine-wash
p1333
sVBusiness & Legal/Credit & Debit Cards/Reloadable
p1334
Vhttp://www.ispot.tv/products/6X/reloadable
p1335
sVBeauty & Appearance/Hair Care/Mousse
p1336
Vhttp://www.ispot.tv/products/2J/mousse
p1337
sVLife & Entertainment/TV Station/Website
p1338
Vhttp://www.ispot.tv/products/gH/website
p1339
sVVehicles/Auto Makers/Truck
p1340
Vhttp://www.ispot.tv/products/K/truck
p1341
sVHealth Care & Medical/Feminine Hygeine/Incontinence
p1342
Vhttp://www.ispot.tv/products/5g/incontinence
p1343
sVApparel, Footwear & Accessories/Clothing/Pants
p1344
Vhttp://www.ispot.tv/products/2P/pants
p1345
sVFood & Beverage/Spreads, Sauces & Salad Dressings/Asian
p1346
Vhttp://www.ispot.tv/products/IP/asian
p1347
sVApparel, Footwear & Accessories/Accessories/Hats
p1348
Vhttp://www.ispot.tv/products/SF/hats
p1349
sVFood & Beverage/Wine & Alcohol/Corkscrew
p1350
Vhttp://www.ispot.tv/products/bu/corkscrew
p1351
sVApparel, Footwear & Accessories/Shoes & Socks/Cleats
p1352
Vhttp://www.ispot.tv/products/Tf/cleats
p1353
sVHealth Care & Medical/Pets/Treat
p1354
Vhttp://www.ispot.tv/products/tu/treat
p1355
sVBeauty & Appearance/Cosmetics & Makeup/Eye Shadows
p1356
Vhttp://www.ispot.tv/products/wB/eye-shadows
p1357
sVFood & Beverage/Snack Foods/Pickles
p1358
Vhttp://www.ispot.tv/products/5r/pickles
p1359
sVLife & Entertainment/Hunting/Tree Stands
p1360
Vhttp://www.ispot.tv/products/g0/tree-stands
p1361
sVHome & Real Estate/Kitchenware/Paper Plates
p1362
Vhttp://www.ispot.tv/products/Oh/paper-plates
p1363
sVElectronics & Communication/Speakers & Headphones/Stereo
p1364
Vhttp://www.ispot.tv/products/2t/stereo
p1365
sVHealth Care & Medical/Pain Relief/Pain Relief
p1366
Vhttp://www.ispot.tv/products/n5/pain-relief
p1367
sVFood & Beverage/Breakfast & Cereal/Doughnuts
p1368
Vhttp://www.ispot.tv/products/6Z/doughnuts
p1369
sVHealth Care & Medical/Pain Relief/Antidepressant
p1370
Vhttp://www.ispot.tv/products/2F/antidepressant
p1371
sVFood & Beverage/Fruit Juices & Drinks/Boxed Juice
p1372
Vhttp://www.ispot.tv/products/LQ/boxed-juice
p1373
sVHealth Care & Medical/Oral Care/Dentures
p1374
Vhttp://www.ispot.tv/products/tq/dentures
p1375
sVHealth Care & Medical/Supplies/Oxygen
p1376
Vhttp://www.ispot.tv/products/wC/oxygen
p1377
sVVehicles/Bicycles, Recreation & Utility/Outboard Motor
p1378
Vhttp://www.ispot.tv/products/6J/outboard-motor
p1379
sVHome & Real Estate/Appliances/Showerhead
p1380
Vhttp://www.ispot.tv/products/Ym/showerhead
p1381
sVFood & Beverage/Snack Foods/Sandwich
p1382
Vhttp://www.ispot.tv/products/59/sandwich
p1383
sVFood & Beverage/Fruit Juices & Drinks/Prune Juice
p1384
Vhttp://www.ispot.tv/products/5E/prune-juice
p1385
sVFood & Beverage/Meat & Seafood/Turkey
p1386
Vhttp://www.ispot.tv/products/58/turkey
p1387
sVHealth Care & Medical/Hospitals & Treatment Centers/Lung Cancer
p1388
Vhttp://www.ispot.tv/products/Tm/lung-cancer
p1389
sVHome & Real Estate/Appliances/Carpet Cleaner
p1390
Vhttp://www.ispot.tv/products/5i/carpet-cleaner
p1391
sVLife & Entertainment/Toys & Games/Playset
p1392
Vhttp://www.ispot.tv/products/ON/playset
p1393
sVHome & Real Estate/Paints & Stains/Sealant
p1394
Vhttp://www.ispot.tv/products/2e/sealant
p1395
sVBeauty & Appearance/Skin Care/Foot Care
p1396
Vhttp://www.ispot.tv/products/5Y/foot-care
p1397
sVLife & Entertainment/Hunting/Archery
p1398
Vhttp://www.ispot.tv/products/gc/archery
p1399
sVVehicles/Auto Parts & Repair/Coolant
p1400
Vhttp://www.ispot.tv/products/bJ/coolant
p1401
sVHealth Care & Medical/Pets/Cats
p1402
Vhttp://www.ispot.tv/products/tN/cats
p1403
sVFood & Beverage/Canned Goods & Soups/Pasta
p1404
Vhttp://www.ispot.tv/products/wR/pasta
p1405
sVFood & Beverage/Bread, Rice, Pastas & Sides/Potatoes
p1406
Vhttp://www.ispot.tv/products/Tc/potatoes
p1407
sVRestaurants/Fast Food/Combo Meals
p1408
Vhttp://www.ispot.tv/products/5/combo-meals
p1409
sVHome & Real Estate/Cleaners & Fresheners/Air Fresheners
p1410
Vhttp://www.ispot.tv/products/wD/air-fresheners
p1411
sVFood & Beverage/Snack Foods/Pastry
p1412
Vhttp://www.ispot.tv/products/5O/pastry
p1413
sVFood & Beverage/Fruit Juices & Drinks/Drink Mix
p1414
Vhttp://www.ispot.tv/products/6R/drink-mix
p1415
sVBeauty & Appearance/Shaving and Hair Removal/Personal Hair Remover
p1416
Vhttp://www.ispot.tv/products/BD/personal-hair-remover
p1417
sVHealth Care & Medical/Pain Relief/UTI
p1418
Vhttp://www.ispot.tv/products/Zq/uti
p1419
sVHealth Care & Medical/Cold, Flu & Allergy Medication/Non-Drowsy
p1420
Vhttp://www.ispot.tv/products/q1/non-drowsy
p1421
sVVehicles/Auto Makers/Minivan
p1422
Vhttp://www.ispot.tv/products/w/minivan
p1423
sVFood & Beverage/Dairy, Eggs & Cheese/Cottage Cheese
p1424
Vhttp://www.ispot.tv/products/fo/cottage-cheese
p1425
sVApparel, Footwear & Accessories/Accessories/Diamonds
p1426
Vhttp://www.ispot.tv/products/bo/diamonds
p1427
sVHome & Real Estate/Tools/Tool Set
p1428
Vhttp://www.ispot.tv/products/f4/tool-set
p1429
sVRetail Stores/Pharmacies/Points Card
p1430
Vhttp://www.ispot.tv/products/ZY/points-card
p1431
sVHome & Real Estate/Kitchenware/Storage
p1432
Vhttp://www.ispot.tv/products/Bf/storage
p1433
sVFood & Beverage/Spreads, Sauces & Salad Dressings/Hummus
p1434
Vhttp://www.ispot.tv/products/6E/hummus
p1435
sVFood & Beverage/Spreads, Sauces & Salad Dressings/Mustard
p1436
Vhttp://www.ispot.tv/products/6s/mustard
p1437
sVHealth Care & Medical/Feminine Hygeine/Medication
p1438
Vhttp://www.ispot.tv/products/Im/medication
p1439
sVRetail Stores/Outdoor & Sporting Goods/Laptop Case
p1440
Vhttp://www.ispot.tv/products/dL/laptop-case
p1441
sVRetail Stores/Pharmacies/Pharmacy
p1442
Vhttp://www.ispot.tv/products/L3/pharmacy
p1443
sVVehicles/Auto Makers/Wagon
p1444
Vhttp://www.ispot.tv/products/Y/wagon
p1445
sVBeauty & Appearance/Skin Care/Acne Treatments
p1446
Vhttp://www.ispot.tv/products/Li/acne-treatments
p1447
sVHome & Real Estate/Housing & Home Improvement/Concrete
p1448
Vhttp://www.ispot.tv/products/OU/concrete
p1449
sVHealth Care & Medical/Supplies/Diabetes
p1450
Vhttp://www.ispot.tv/products/7n/diabetes
p1451
sVHealth Care & Medical/Eye Care & Glasses/Dry Eye
p1452
Vhttp://www.ispot.tv/products/qj/dry-eye
p1453
sVElectronics & Communication/Speakers & Headphones/Noise-Cancelling Headphones
p1454
Vhttp://www.ispot.tv/products/1f/noise-cancelling-headphones
p1455
sVApparel, Footwear & Accessories/Shoes & Socks/Clogs
p1456
Vhttp://www.ispot.tv/products/1a/clogs
p1457
sVLife & Entertainment/Toys & Games/Dolls
p1458
Vhttp://www.ispot.tv/products/O7/dolls
p1459
sVFood & Beverage/Breakfast & Cereal/Pastry
p1460
Vhttp://www.ispot.tv/products/nt/pastry
p1461
sVRetail Stores/Grocery Stores/Meats
p1462
Vhttp://www.ispot.tv/products/fl/meats
p1463
sVRetail Stores/Department Stores/Services
p1464
Vhttp://www.ispot.tv/products/Z6/services
p1465
sVFood & Beverage/Candy & Gum/Candy Bar
p1466
Vhttp://www.ispot.tv/products/72/candy-bar
p1467
sVLife & Entertainment/Sports/Hockey
p1468
Vhttp://www.ispot.tv/products/fn/hockey
p1469
sVElectronics & Communication/Mobile Devices/Tablet
p1470
Vhttp://www.ispot.tv/products/dQ/tablet
p1471
sVHome & Real Estate/Appliances/Garage Door Opener
p1472
Vhttp://www.ispot.tv/products/2Y/garage-door-opener
p1473
sVHealth Care & Medical/Antacids & Stomach/Laxatives
p1474
Vhttp://www.ispot.tv/products/5S/laxatives
p1475
sVFood & Beverage/Coffee & Tea/Coffee Maker
p1476
Vhttp://www.ispot.tv/products/qi/coffee-maker
p1477
sVRetail Stores/Outdoor & Sporting Goods/Firearms
p1478
Vhttp://www.ispot.tv/products/Bb/firearms
p1479
sVVehicles/Auto Makers/Service
p1480
Vhttp://www.ispot.tv/products/5a/service
p1481
sVBusiness & Legal/Business Supplies & Services/Credit Card Reader
p1482
Vhttp://www.ispot.tv/products/2B/credit-card-reader
p1483
sVRetail Stores/Outdoor & Sporting Goods/Hunting
p1484
Vhttp://www.ispot.tv/products/1N/hunting
p1485
sVFood & Beverage/Candy & Gum/Chocolate
p1486
Vhttp://www.ispot.tv/products/a/chocolate
p1487
sVHealth Care & Medical/Bones, Joints & Muscle/Cholesterol
p1488
Vhttp://www.ispot.tv/products/qy/cholesterol
p1489
sVLife & Entertainment/Hobbies & Collectibles/Fishing
p1490
Vhttp://www.ispot.tv/products/Sh/fishing
p1491
sVLife & Entertainment/Sports/NBA
p1492
Vhttp://www.ispot.tv/products/6f/nba
p1493
sVFood & Beverage/Condiments, Spices & Bake/Spread
p1494
Vhttp://www.ispot.tv/products/Ag/spread
p1495
sVFood & Beverage/Snack Foods/Cream Cheese
p1496
Vhttp://www.ispot.tv/products/YI/cream-cheese
p1497
sVElectronics & Communication/Computers & Tablets/Tablets
p1498
Vhttp://www.ispot.tv/products/7y/tablets
p1499
sVFood & Beverage/Pets/Cats
p1500
Vhttp://www.ispot.tv/products/ts/cats
p1501
sVHome & Real Estate/Housing & Home Improvement/Paint Rollers
p1502
Vhttp://www.ispot.tv/products/TY/paint-rollers
p1503
sVFood & Beverage/Spreads, Sauces & Salad Dressings/Pasta
p1504
Vhttp://www.ispot.tv/products/nG/pasta
p1505
sVFood & Beverage/Breakfast & Cereal/Oatmeal
p1506
Vhttp://www.ispot.tv/products/1Q/oatmeal
p1507
sVVehicles/Car Maintenance & Accessories/Wheel Cleaner
p1508
Vhttp://www.ispot.tv/products/BP/wheel-cleaner
p1509
sVHome & Real Estate/Flooring/Floor Mat
p1510
Vhttp://www.ispot.tv/products/bh/floor-mat
p1511
sVHome & Real Estate/Toiletries & Paper Products/Facial Tissues
p1512
Vhttp://www.ispot.tv/products/f0/facial-tissues
p1513
sVFood & Beverage/Frozen Foods/Pizza
p1514
Vhttp://www.ispot.tv/products/5f/pizza
p1515
sVVehicles/Auto Makers/Trailer
p1516
Vhttp://www.ispot.tv/products/Al/trailer
p1517
sVRetail Stores/Clothing Stores/Sport Bras
p1518
Vhttp://www.ispot.tv/products/gj/sport-bras
p1519
sVElectronics & Communication/Consumer Software & Apps/Photo Editing
p1520
Vhttp://www.ispot.tv/products/nf/photo-editing
p1521
sVBusiness & Legal/Investment Services/Consulting
p1522
Vhttp://www.ispot.tv/products/Ak/consulting
p1523
sVRestaurants/Fast Food/Ice Cream
p1524
Vhttp://www.ispot.tv/products/tg/ice-cream
p1525
sVFood & Beverage/Health Conscious/Weight Loss
p1526
Vhttp://www.ispot.tv/products/19/weight-loss
p1527
sVLife & Entertainment/Movies/TV Show
p1528
Vhttp://www.ispot.tv/products/Iz/tv-show
p1529
sVRetail Stores/Outdoor & Sporting Goods/Golf
p1530
Vhttp://www.ispot.tv/products/ws/golf
p1531
sVLife & Entertainment/Sports/App
p1532
Vhttp://www.ispot.tv/products/bi/app
p1533
sVLife & Entertainment/Music/Soundtrack
p1534
Vhttp://www.ispot.tv/products/So/soundtrack
p1535
sVHome & Real Estate/Flooring/Flooring
p1536
Vhttp://www.ispot.tv/products/SM/flooring
p1537
sVLife & Entertainment/TV Station/Blu-ray and DVD
p1538
Vhttp://www.ispot.tv/products/ou/blu-ray-and-dvd
p1539
sVLife & Entertainment/Movies/Blu-ray and Digital HD
p1540
Vhttp://www.ispot.tv/products/gK/blu-ray-and-digital-hd
p1541
sVApparel, Footwear & Accessories/Accessories/Rings
p1542
Vhttp://www.ispot.tv/products/bE/rings
p1543
sVBeauty & Appearance/Cosmetics & Makeup/Lip Balms
p1544
Vhttp://www.ispot.tv/products/wG/lip-balms
p1545
sVHome & Real Estate/Paints & Stains/Deck Stains
p1546
Vhttp://www.ispot.tv/products/q/deck-stains
p1547
sVVehicles/Bicycles, Recreation & Utility/Sport
p1548
Vhttp://www.ispot.tv/products/tl/sport
p1549
sVRestaurants/Pizza/P-Zolo
p1550
Vhttp://www.ispot.tv/products/kW/p-zolo
p1551
sVHome & Real Estate/Cleaners & Fresheners/Sponges
p1552
Vhttp://www.ispot.tv/products/5h/sponges
p1553
sVRetail Stores/Outdoor & Sporting Goods/Bow
p1554
Vhttp://www.ispot.tv/products/B7/bow
p1555
sVVehicles/Fuel & Motor Oil/Tuner
p1556
Vhttp://www.ispot.tv/products/6P/tuner
p1557
sVRestaurants/Fast Food/Hot Dogs
p1558
Vhttp://www.ispot.tv/products/6I/hot-dogs
p1559
sVApparel, Footwear & Accessories/Clothing/Pajamas
p1560
Vhttp://www.ispot.tv/products/1C/pajamas
p1561
sVApparel, Footwear & Accessories/Clothing/Shirts
p1562
Vhttp://www.ispot.tv/products/A9/shirts
p1563
sVBusiness & Legal/Banks/Credit Cards
p1564
Vhttp://www.ispot.tv/products/LM/credit-cards
p1565
sVVehicles/Car Maintenance & Accessories/Truck Bed Liners
p1566
Vhttp://www.ispot.tv/products/fp/truck-bed-liners
p1567
sVVehicles/Bicycles, Recreation & Utility/RTVs
p1568
Vhttp://www.ispot.tv/products/gS/rtvs
p1569
sVFood & Beverage/Candy & Gum/Licorice
p1570
Vhttp://www.ispot.tv/products/w1/licorice
p1571
sVInsurance/Health/Medicare
p1572
Vhttp://www.ispot.tv/products/bT/medicare
p1573
sVRetail Stores/Clothing Stores/Ties
p1574
Vhttp://www.ispot.tv/products/13/ties
p1575
sVVehicles/Bicycles, Recreation & Utility/ATVs
p1576
Vhttp://www.ispot.tv/products/T4/atvs
p1577
sVVehicles/Fuel & Motor Oil/Boats
p1578
Vhttp://www.ispot.tv/products/d7/boats
p1579
sVHealth Care & Medical/Antacids & Stomach/Probiotic
p1580
Vhttp://www.ispot.tv/products/ne/probiotic
p1581
sVFood & Beverage/Breakfast & Cereal/Rewards
p1582
Vhttp://www.ispot.tv/products/Bi/rewards
p1583
sVFood & Beverage/Snack Foods/Cereal
p1584
Vhttp://www.ispot.tv/products/kO/cereal
p1585
sVFood & Beverage/Spreads, Sauces & Salad Dressings/Spread
p1586
Vhttp://www.ispot.tv/products/we/spread
p1587
sVFood & Beverage/Breakfast & Cereal/Cereal Bars
p1588
Vhttp://www.ispot.tv/products/AH/cereal-bars
p1589
sVInsurance/Auto & General/Apps
p1590
Vhttp://www.ispot.tv/products/1x/apps
p1591
sVLife & Entertainment/Toys & Games/Trains
p1592
Vhttp://www.ispot.tv/products/Ob/trains
p1593
sVBeauty & Appearance/Skin Care/Cold Sores
p1594
Vhttp://www.ispot.tv/products/nV/cold-sores
p1595
sVHealth Care & Medical/Pets/Litter
p1596
Vhttp://www.ispot.tv/products/6W/litter
p1597
sVElectronics & Communication/Internet Services/Domain Names
p1598
Vhttp://www.ispot.tv/products/67/domain-names
p1599
sVHome & Real Estate/Tools/Screwdriver
p1600
Vhttp://www.ispot.tv/products/bN/screwdriver
p1601
sVFood & Beverage/Pets/Treat
p1602
Vhttp://www.ispot.tv/products/TJ/treat
p1603
sVFood & Beverage/Candy & Gum/Gum
p1604
Vhttp://www.ispot.tv/products/gG/gum
p1605
sVBeauty & Appearance/Hair Care/Hair Color
p1606
Vhttp://www.ispot.tv/products/kV/hair-color
p1607
sVLife & Entertainment/Movies/DVD
p1608
Vhttp://www.ispot.tv/products/Ig/dvd
p1609
sVApparel, Footwear & Accessories/Underwear/Bra
p1610
Vhttp://www.ispot.tv/products/YK/bra
p1611
sVHome & Real Estate/Gardening & Outdoor/Grass Seeds
p1612
Vhttp://www.ispot.tv/products/Zd/grass-seeds
p1613
sVHealth Care & Medical/Vitamins & Supplements/Dietary Supplement
p1614
Vhttp://www.ispot.tv/products/L4/dietary-supplement
p1615
sVHome & Real Estate/Kitchenware/Cookware
p1616
Vhttp://www.ispot.tv/products/60/cookware
p1617
sVLife & Entertainment/Music/Opera
p1618
Vhttp://www.ispot.tv/products/n9/opera
p1619
sVHealth Care & Medical/Gyms & Fitness/Health
p1620
Vhttp://www.ispot.tv/products/TH/health
p1621
sVRestaurants/Sit-Down/Pancakes
p1622
Vhttp://www.ispot.tv/products/nr/pancakes
p1623
sVHome & Real Estate/Bedding/Pillows
p1624
Vhttp://www.ispot.tv/products/O9/pillows
p1625
sVElectronics & Communication/Computers & Tablets/Printers
p1626
Vhttp://www.ispot.tv/products/qe/printers
p1627
sVLife & Entertainment/Movies/Digital HD
p1628
Vhttp://www.ispot.tv/products/1U/digital-hd
p1629
sVHealth Care & Medical/Eye Care & Glasses/Ear Ringing
p1630
Vhttp://www.ispot.tv/products/qr/ear-ringing
p1631
sVLife & Entertainment/Hunting/Knives
p1632
Vhttp://www.ispot.tv/products/S7/knives
p1633
sVHome & Real Estate/Pet & Pest Control/Weed Killers
p1634
Vhttp://www.ispot.tv/products/fN/weed-killers
p1635
sVHome & Real Estate/Gardening & Outdoor/Insects
p1636
Vhttp://www.ispot.tv/products/fX/insects
p1637
sVLife & Entertainment/Music/Microphones
p1638
Vhttp://www.ispot.tv/products/6p/microphones
p1639
sVApparel, Footwear & Accessories/Clothing/Hunting
p1640
Vhttp://www.ispot.tv/products/o6/hunting
p1641
sVBeauty & Appearance/Skin Care/Facial Wipes
p1642
Vhttp://www.ispot.tv/products/Id/facial-wipes
p1643
sVApparel, Footwear & Accessories/Clothing/Sweaters
p1644
Vhttp://www.ispot.tv/products/1J/sweaters
p1645
sVFood & Beverage/Canned Goods & Soups/Macaroni
p1646
Vhttp://www.ispot.tv/products/Ip/macaroni
p1647
sVFood & Beverage/Meat & Seafood/Hot Dogs
p1648
Vhttp://www.ispot.tv/products/_/hot-dogs
p1649
sVElectronics & Communication/Internet Services/High-Speed Internet
p1650
Vhttp://www.ispot.tv/products/no/high-speed-internet
p1651
sVBeauty & Appearance/Skin Care/Facial Brush
p1652
Vhttp://www.ispot.tv/products/fs/facial-brush
p1653
sVHealth Care & Medical/Vitamins & Supplements/Weight Loss
p1654
Vhttp://www.ispot.tv/products/di/weight-loss
p1655
sVFood & Beverage/Snack Foods/Marshmallows
p1656
Vhttp://www.ispot.tv/products/Ly/marshmallows
p1657
sVElectronics & Communication/Computers & Tablets/Laptop
p1658
Vhttp://www.ispot.tv/products/kK/laptop
p1659
sVLife & Entertainment/Sports/Racing
p1660
Vhttp://www.ispot.tv/products/gl/racing
p1661
sVBeauty & Appearance/Skin Care/Scalp Itch
p1662
Vhttp://www.ispot.tv/products/5T/scalp-itch
p1663
sVHealth Care & Medical/Vitamins & Supplements/Protein
p1664
Vhttp://www.ispot.tv/products/5D/protein
p1665
sVFood & Beverage/Wine & Alcohol/Digestif
p1666
Vhttp://www.ispot.tv/products/Zh/digestif
p1667
sVHome & Real Estate/Appliances/Fryers
p1668
Vhttp://www.ispot.tv/products/fO/fryers
p1669
sVHealth Care & Medical/Vitamins & Supplements/Calcium
p1670
Vhttp://www.ispot.tv/products/k0/calcium
p1671
sVElectronics & Communication/Consumer Software & Apps/Video Game
p1672
Vhttp://www.ispot.tv/products/gY/video-game
p1673
sVBusiness & Legal/Credit & Debit Cards/Credit Card
p1674
Vhttp://www.ispot.tv/products/TI/credit-card
p1675
sVLife & Entertainment/Tickets/Gift Cards
p1676
Vhttp://www.ispot.tv/products/SC/gift-cards
p1677
sVHome & Real Estate/Cleaners & Fresheners/Bathroom
p1678
Vhttp://www.ispot.tv/products/kT/bathroom
p1679
sVElectronics & Communication/Computers & Tablets/Social Network
p1680
Vhttp://www.ispot.tv/products/1P/social-network
p1681
sVFood & Beverage/Health Conscious/Yogurt
p1682
Vhttp://www.ispot.tv/products/oY/yogurt
p1683
sVHome & Real Estate/Appliances/Dishwasher
p1684
Vhttp://www.ispot.tv/products/nk/dishwasher
p1685
sVLife & Entertainment/Hunting/Scopes & Sights
p1686
Vhttp://www.ispot.tv/products/SV/scopes-&-sights
p1687
sVLife & Entertainment/Toys & Games/Cars
p1688
Vhttp://www.ispot.tv/products/OL/cars
p1689
sVFood & Beverage/Spreads, Sauces & Salad Dressings/Peanut Butter
p1690
Vhttp://www.ispot.tv/products/7f/peanut-butter
p1691
sVRestaurants/Pizza/Take and Bake
p1692
Vhttp://www.ispot.tv/products/7/take-and-bake
p1693
sVRetail Stores/Grocery Stores/Yogurt
p1694
Vhttp://www.ispot.tv/products/LY/yogurt
p1695
sVLife & Entertainment/Toys & Games/Art
p1696
Vhttp://www.ispot.tv/products/t0/art
p1697
sVFood & Beverage/Candy & Gum/Candies
p1698
Vhttp://www.ispot.tv/products/gk/candies
p1699
sVElectronics & Communication/Computers & Tablets/PC
p1700
Vhttp://www.ispot.tv/products/2A/pc
p1701
sVApparel, Footwear & Accessories/Accessories/Bridal
p1702
Vhttp://www.ispot.tv/products/bc/bridal
p1703
sVFood & Beverage/Ice Cream & Frozen Treats/Cakes
p1704
Vhttp://www.ispot.tv/products/1K/cakes
p1705
sVApparel, Footwear & Accessories/Accessories/Wallets
p1706
Vhttp://www.ispot.tv/products/2R/wallets
p1707
sVFood & Beverage/Dairy, Eggs & Cheese/Sliced Cheese
p1708
Vhttp://www.ispot.tv/products/T0/sliced-cheese
p1709
sVHome & Real Estate/Kitchenware/Grill
p1710
Vhttp://www.ispot.tv/products/2O/grill
p1711
sVFood & Beverage/Snack Foods/Oranges
p1712
Vhttp://www.ispot.tv/products/Sl/oranges
p1713
sVHealth Care & Medical/Pain Relief/Ibuprofen
p1714
Vhttp://www.ispot.tv/products/LS/ibuprofen
p1715
sVBusiness & Legal/Loans & Credits/Tax Software
p1716
Vhttp://www.ispot.tv/products/54/tax-software
p1717
sVHome & Real Estate/Paints & Stains/Multi-Surface
p1718
Vhttp://www.ispot.tv/products/IU/multi-surface
p1719
sVHome & Real Estate/Kitchenware/Blender
p1720
Vhttp://www.ispot.tv/products/g7/blender
p1721
sVFood & Beverage/Candy & Gum/Mints
p1722
Vhttp://www.ispot.tv/products/Of/mints
p1723
sVVehicles/Auto Makers/Convertible
p1724
Vhttp://www.ispot.tv/products/Ac/convertible
p1725
sVBeauty & Appearance/Cosmetics & Makeup/Bronzers
p1726
Vhttp://www.ispot.tv/products/q0/bronzers
p1727
sVLife & Entertainment/Sports/Tennis Racket
p1728
Vhttp://www.ispot.tv/products/gX/tennis-racket
p1729
sVRestaurants/Fast Food/Fries
p1730
Vhttp://www.ispot.tv/products/2v/fries
p1731
sVHome & Real Estate/Garbage & Freezer Bags/Space Bag
p1732
Vhttp://www.ispot.tv/products/O4/space-bag
p1733
sVLife & Entertainment/Toys & Games/Bikes
p1734
Vhttp://www.ispot.tv/products/23/bikes
p1735
sVApparel, Footwear & Accessories/Accessories/Purses
p1736
Vhttp://www.ispot.tv/products/gZ/purses
p1737
sVApparel, Footwear & Accessories/Clothing/Gloves
p1738
Vhttp://www.ispot.tv/products/1H/gloves
p1739
sVFood & Beverage/Snack Foods/Chocolate
p1740
Vhttp://www.ispot.tv/products/de/chocolate
p1741
sVLife & Entertainment/Books/Thriller
p1742
Vhttp://www.ispot.tv/products/Ib/thriller
p1743
sVHome & Real Estate/Tools/Drills
p1744
Vhttp://www.ispot.tv/products/bX/drills
p1745
sVFood & Beverage/Canned Goods & Soups/Tacos
p1746
Vhttp://www.ispot.tv/products/ox/tacos
p1747
sVElectronics & Communication/Televisions/DVR
p1748
Vhttp://www.ispot.tv/products/1S/dvr
p1749
sVRetail Stores/Office & School Supplies/Crayons
p1750
Vhttp://www.ispot.tv/products/qW/crayons
p1751
sVBusiness & Legal/Credit & Debit Cards/Mobile Application
p1752
Vhttp://www.ispot.tv/products/Ii/mobile-application
p1753
sVLife & Entertainment/Toys & Games/Blaster Gun
p1754
Vhttp://www.ispot.tv/products/tv/blaster-gun
p1755
sVHome & Real Estate/Pet & Pest Control/Mice
p1756
Vhttp://www.ispot.tv/products/ZK/mice
p1757
sVLife & Entertainment/Music/Streaming
p1758
Vhttp://www.ispot.tv/products/Sc/streaming
p1759
sVFood & Beverage/Fruit Juices & Drinks/Chocolate
p1760
Vhttp://www.ispot.tv/products/gL/chocolate
p1761
sVHealth Care & Medical/Baby Care/Baby Formula
p1762
Vhttp://www.ispot.tv/products/6_/baby-formula
p1763
sVFood & Beverage/Canned Goods & Soups/Soup
p1764
Vhttp://www.ispot.tv/products/6V/soup
p1765
sVHealth Care & Medical/Supplies/Adhesive Bandages
p1766
Vhttp://www.ispot.tv/products/fG/adhesive-bandages
p1767
sVLife & Entertainment/Sports/Tennis
p1768
Vhttp://www.ispot.tv/products/IY/tennis
p1769
sVFood & Beverage/Spreads, Sauces & Salad Dressings/Hot Sauce
p1770
Vhttp://www.ispot.tv/products/Z3/hot-sauce
p1771
sVBeauty & Appearance/Shaving and Hair Removal/Trimmer
p1772
Vhttp://www.ispot.tv/products/B0/trimmer
p1773
sVHealth Care & Medical/Oral Care/Braces
p1774
Vhttp://www.ispot.tv/products/qg/braces
p1775
sVFood & Beverage/Snack Foods/Crackers
p1776
Vhttp://www.ispot.tv/products/7e/crackers
p1777
sVFood & Beverage/Dairy, Eggs & Cheese/Eggs
p1778
Vhttp://www.ispot.tv/products/b3/eggs
p1779
sVFood & Beverage/Spreads, Sauces & Salad Dressings/Salsa
p1780
Vhttp://www.ispot.tv/products/do/salsa
p1781
sVLife & Entertainment/TV Station/Fantasy Football
p1782
Vhttp://www.ispot.tv/products/Bv/fantasy-football
p1783
sVRetail Stores/Outdoor & Sporting Goods/Jackets
p1784
Vhttp://www.ispot.tv/products/1T/jackets
p1785
sVLife & Entertainment/Music/Downloads
p1786
Vhttp://www.ispot.tv/products/5x/downloads
p1787
sVHealth Care & Medical/Eye Care & Glasses/Contact Lenses
p1788
Vhttp://www.ispot.tv/products/1b/contact-lenses
p1789
sVApparel, Footwear & Accessories/Clothing/Jackets
p1790
Vhttp://www.ispot.tv/products/nR/jackets
p1791
sVFood & Beverage/Snack Foods/Cheese
p1792
Vhttp://www.ispot.tv/products/bY/cheese
p1793
sVRetail Stores/Electronics/Laptop
p1794
Vhttp://www.ispot.tv/products/LJ/laptop
p1795
sVElectronics & Communication/Consumer Software & Apps/Internet Browser
p1796
Vhttp://www.ispot.tv/products/Ot/internet-browser
p1797
sVBeauty & Appearance/Hair Care/Sprays
p1798
Vhttp://www.ispot.tv/products/Ls/sprays
p1799
sVHome & Real Estate/Tools/Lawn Mower
p1800
Vhttp://www.ispot.tv/products/nY/lawn-mower
p1801
sVRetail Stores/Department Stores/Furniture
p1802
Vhttp://www.ispot.tv/products/Yn/furniture
p1803
sVRetail Stores/Department Stores/Prepaid Card
p1804
Vhttp://www.ispot.tv/products/Z5/prepaid-card
p1805
sVElectronics & Communication/Speakers & Headphones/Portable Speakers
p1806
Vhttp://www.ispot.tv/products/1R/portable-speakers
p1807
sVBusiness & Legal/Credit & Debit Cards/Rewards
p1808
Vhttp://www.ispot.tv/products/A1/rewards
p1809
sVLife & Entertainment/Hunting/Firearms
p1810
Vhttp://www.ispot.tv/products/g3/firearms
p1811
sVHome & Real Estate/Detergents/Laundry
p1812
Vhttp://www.ispot.tv/products/7U/laundry
p1813
sVHealth Care & Medical/Gyms & Fitness/Exercise Program
p1814
Vhttp://www.ispot.tv/products/6y/exercise-program
p1815
sVHome & Real Estate/Flooring/Carpets
p1816
Vhttp://www.ispot.tv/products/6F/carpets
p1817
sVBeauty & Appearance/Hair Care/Curling Iron
p1818
Vhttp://www.ispot.tv/products/1Z/curling-iron
p1819
sVRetail Stores/Clothing Stores/Dress
p1820
Vhttp://www.ispot.tv/products/bM/dress
p1821
sVLife & Entertainment/Movies/Blu-ray & Digital HD
p1822
Vhttp://www.ispot.tv/products/gp/blu-ray-&-digital-hd
p1823
sVVehicles/Car Maintenance & Accessories/Aftermarket Parts
p1824
Vhttp://www.ispot.tv/products/6Q/aftermarket-parts
p1825
sVLife & Entertainment/News & Information/Genealogy
p1826
Vhttp://www.ispot.tv/products/1O/genealogy
p1827
sVBeauty & Appearance/Cosmetics & Makeup/Blushes
p1828
Vhttp://www.ispot.tv/products/Ao/blushes
p1829
sVHome & Real Estate/Showers, Hot Tubs & Spas/Tubs
p1830
Vhttp://www.ispot.tv/products/6r/tubs
p1831
sVElectronics & Communication/Wireless/Mobile Application
p1832
Vhttp://www.ispot.tv/products/1v/mobile-application
p1833
sVBeauty & Appearance/Skin Care/Sunscreens
p1834
Vhttp://www.ispot.tv/products/f/sunscreens
p1835
sVHome & Real Estate/Pet & Pest Control/Cats
p1836
Vhttp://www.ispot.tv/products/Sy/cats
p1837
sVFood & Beverage/Wine & Alcohol/Chardonnay
p1838
Vhttp://www.ispot.tv/products/1k/chardonnay
p1839
sVHome & Real Estate/Appliances/Vacuums
p1840
Vhttp://www.ispot.tv/products/bz/vacuums
p1841
sVFood & Beverage/Coffee & Tea/Ground Coffee
p1842
Vhttp://www.ispot.tv/products/n1/ground-coffee
p1843
sVLife & Entertainment/Sports/Golf Balls
p1844
Vhttp://www.ispot.tv/products/5m/golf-balls
p1845
sVHome & Real Estate/Cleaners & Fresheners/Mops
p1846
Vhttp://www.ispot.tv/products/I7/mops
p1847
sVLife & Entertainment/TV Station/Online
p1848
Vhttp://www.ispot.tv/products/qa/online
p1849
sVVehicles/Auto Parts & Repair/Rewards Card
p1850
Vhttp://www.ispot.tv/products/Ta/rewards-card
p1851
sVHome & Real Estate/Showers, Hot Tubs & Spas/Shower Heads
p1852
Vhttp://www.ispot.tv/products/oV/shower-heads
p1853
sVVehicles/Bicycles, Recreation & Utility/Off-Road Vehicles
p1854
Vhttp://www.ispot.tv/products/AZ/off-road-vehicles
p1855
sVElectronics & Communication/Consumer Software & Apps/Mobile App
p1856
Vhttp://www.ispot.tv/products/bs/mobile-app
p1857
sVFood & Beverage/Meat & Seafood/Tuna
p1858
Vhttp://www.ispot.tv/products/5q/tuna
p1859
sVApparel, Footwear & Accessories/Shoes & Socks/Slippers
p1860
Vhttp://www.ispot.tv/products/b_/slippers
p1861
sVLife & Entertainment/Hunting/Attractants
p1862
Vhttp://www.ispot.tv/products/g9/attractants
p1863
sVRetail Stores/Department Stores/Diapers
p1864
Vhttp://www.ispot.tv/products/5P/diapers
p1865
sVFood & Beverage/Snack Foods/Pita Chips
p1866
Vhttp://www.ispot.tv/products/7N/pita-chips
p1867
sVRetail Stores/Home Improvement/Paints
p1868
Vhttp://www.ispot.tv/products/qE/paints
p1869
sVLife & Entertainment/Music/Album
p1870
Vhttp://www.ispot.tv/products/tV/album
p1871
sVRetail Stores/Outdoor & Sporting Goods/DVD
p1872
Vhttp://www.ispot.tv/products/BA/dvd
p1873
sVFood & Beverage/Canned Goods & Soups/Fruits
p1874
Vhttp://www.ispot.tv/products/IN/fruits
p1875
sVRestaurants/Fast Food/Sandwich
p1876
Vhttp://www.ispot.tv/products/Ix/sandwich
p1877
sVRestaurants/Fast Food/Mexican
p1878
Vhttp://www.ispot.tv/products/Ij/mexican
p1879
sVHealth Care & Medical/Supplies/Nasal Strips
p1880
Vhttp://www.ispot.tv/products/bU/nasal-strips
p1881
sVHome & Real Estate/Appliances/Coffee Maker
p1882
Vhttp://www.ispot.tv/products/bF/coffee-maker
p1883
sVElectronics & Communication/Mobile Devices/Smart Watch
p1884
Vhttp://www.ispot.tv/products/gd/smart-watch
p1885
sVElectronics & Communication/Consumer Software & Apps/Email
p1886
Vhttp://www.ispot.tv/products/65/email
p1887
sVHealth Care & Medical/Pain Relief/Cold and Flu
p1888
Vhttp://www.ispot.tv/products/bg/cold-and-flu
p1889
sVFood & Beverage/Snack Foods/Nuts
p1890
Vhttp://www.ispot.tv/products/oZ/nuts
p1891
sVElectronics & Communication/Computers & Tablets/Photo Editing
p1892
Vhttp://www.ispot.tv/products/A7/photo-editing
p1893
sVElectronics & Communication/Cable & Satellite TV/Channel
p1894
Vhttp://www.ispot.tv/products/db/channel
p1895
sVElectronics & Communication/Cameras/Binoculars
p1896
Vhttp://www.ispot.tv/products/gq/binoculars
p1897
sVElectronics & Communication/Mobile Devices/Smartphone
p1898
Vhttp://www.ispot.tv/products/7t/smartphone
p1899
sVLife & Entertainment/Movies/Soundtrack CD
p1900
Vhttp://www.ispot.tv/products/Z1/soundtrack-cd
p1901
sVHome & Real Estate/Gardening & Outdoor/Hoses
p1902
Vhttp://www.ispot.tv/products/6C/hoses
p1903
sVBeauty & Appearance/Skin Care/Body Washes and Soaps
p1904
Vhttp://www.ispot.tv/products/6N/body-washes-and-soaps
p1905
sVHealth Care & Medical/Bones, Joints & Muscle/Knee Replacement
p1906
Vhttp://www.ispot.tv/products/qK/knee-replacement
p1907
sVHome & Real Estate/Tools/Chainsaw
p1908
Vhttp://www.ispot.tv/products/bd/chainsaw
p1909
sVVehicles/Car Maintenance & Accessories/floor-liners
p1910
Vhttp://www.ispot.tv/products/6l/floor-liners
p1911
sVHealth Care & Medical/Pets/Dogs
p1912
Vhttp://www.ispot.tv/products/6i/dogs
p1913
sVHome & Real Estate/Bedding/Mattress
p1914
Vhttp://www.ispot.tv/products/qY/mattress
p1915
sVVehicles/Fuel & Motor Oil/Motor Oil
p1916
Vhttp://www.ispot.tv/products/ty/motor-oil
p1917
sVLife & Entertainment/Toys & Games/Electronic Toys
p1918
Vhttp://www.ispot.tv/products/1X/electronic-toys
p1919
sVRetail Stores/Department Stores/Jewelry
p1920
Vhttp://www.ispot.tv/products/bx/jewelry
p1921
sVRestaurants/Pizza/Pastas
p1922
Vhttp://www.ispot.tv/products/t/pastas
p1923
sVLife & Entertainment/Video Games/Video Game Console
p1924
Vhttp://www.ispot.tv/products/SS/video-game-console
p1925
sVHealth Care & Medical/Baby Care/Baby Food
p1926
Vhttp://www.ispot.tv/products/BN/baby-food
p1927
sVLife & Entertainment/Music/Box Set
p1928
Vhttp://www.ispot.tv/products/2z/box-set
p1929
sVBusiness & Legal/Loans & Credits/Mortgages
p1930
Vhttp://www.ispot.tv/products/A3/mortgages
p1931
sVVehicles/Auto Parts & Repair/Boost Cooler
p1932
Vhttp://www.ispot.tv/products/ff/boost-cooler
p1933
sVFood & Beverage/Frozen Foods/Appetizers
p1934
Vhttp://www.ispot.tv/products/7b/appetizers
p1935
sVLife & Entertainment/Sports/Basketball
p1936
Vhttp://www.ispot.tv/products/ft/basketball
p1937
sVLife & Entertainment/Sports/Target Shooting
p1938
Vhttp://www.ispot.tv/products/gg/target-shooting
p1939
sVFood & Beverage/Breakfast & Cereal/Mix
p1940
Vhttp://www.ispot.tv/products/OW/mix
p1941
sVHome & Real Estate/Showers, Hot Tubs & Spas/Bathroom
p1942
Vhttp://www.ispot.tv/products/oR/bathroom
p1943
sVHealth Care & Medical/Eye Care & Glasses/App
p1944
Vhttp://www.ispot.tv/products/Bm/app
p1945
sVBusiness & Legal/Investment Services/Applications
p1946
Vhttp://www.ispot.tv/products/A0/applications
p1947
sVLife & Entertainment/Religion/audiobook
p1948
Vhttp://www.ispot.tv/products/BW/audiobook
p1949
sVRetail Stores/Electronics/Blu-ray and DVD
p1950
Vhttp://www.ispot.tv/products/1n/blu-ray-and-dvd
p1951
sVRetail Stores/Pharmacies/Cold Medicine
p1952
Vhttp://www.ispot.tv/products/o_/cold-medicine
p1953
sVRestaurants/Fast Food/Tater Tots
p1954
Vhttp://www.ispot.tv/products/fB/tater-tots
p1955
sVRetail Stores/Online & Auction Websites/Flowers
p1956
Vhttp://www.ispot.tv/products/f9/flowers
p1957
sVLife & Entertainment/Toys & Games/Games
p1958
Vhttp://www.ispot.tv/products/Od/games
p1959
sVFood & Beverage/Frozen Foods/Pasta
p1960
Vhttp://www.ispot.tv/products/od/pasta
p1961
sVElectronics & Communication/Speakers & Headphones/Sound System
p1962
Vhttp://www.ispot.tv/products/IH/sound-system
p1963
sVBeauty & Appearance/Skin Care/Serums
p1964
Vhttp://www.ispot.tv/products/ke/serums
p1965
sVFood & Beverage/Wine & Alcohol/Amaretto
p1966
Vhttp://www.ispot.tv/products/o0/amaretto
p1967
sVFood & Beverage/Condiments, Spices & Bake/Corn Flour
p1968
Vhttp://www.ispot.tv/products/BF/corn-flour
p1969
sVVehicles/Auto Makers/Racecar
p1970
Vhttp://www.ispot.tv/products/d8/racecar
p1971
sVHome & Real Estate/Power & Electricity/Briquettes
p1972
Vhttp://www.ispot.tv/products/T2/briquettes
p1973
sVElectronics & Communication/Speakers & Headphones/Mobile Speaker
p1974
Vhttp://www.ispot.tv/products/2u/mobile-speaker
p1975
sVApparel, Footwear & Accessories/Underwear/Briefs
p1976
Vhttp://www.ispot.tv/products/Th/briefs
p1977
sVHealth Care & Medical/Gyms & Fitness/Membership
p1978
Vhttp://www.ispot.tv/products/fQ/membership
p1979
sVHealth Care & Medical/Pets/Birds
p1980
Vhttp://www.ispot.tv/products/tC/birds
p1981
sVFood & Beverage/Breakfast & Cereal/Cereal
p1982
Vhttp://www.ispot.tv/products/nc/cereal
p1983
sVRestaurants/Fast Food/Milkshake
p1984
Vhttp://www.ispot.tv/products/tB/milkshake
p1985
sVFood & Beverage/Frozen Foods/French Fries
p1986
Vhttp://www.ispot.tv/products/dB/french-fries
p1987
sVRetail Stores/Clothing Stores/Sweater
p1988
Vhttp://www.ispot.tv/products/1D/sweater
p1989
sVFood & Beverage/Frozen Foods/Pies
p1990
Vhttp://www.ispot.tv/products/IA/pies
p1991
sVLife & Entertainment/Music/Concert DVD
p1992
Vhttp://www.ispot.tv/products/f8/concert-dvd
p1993
sVFood & Beverage/Fruit Juices & Drinks/Cranberry Juice
p1994
Vhttp://www.ispot.tv/products/AW/cranberry-juice
p1995
sVHome & Real Estate/Tools/Ratchet
p1996
Vhttp://www.ispot.tv/products/bm/ratchet
p1997
sVFood & Beverage/Dairy, Eggs & Cheese/Block Cheese
p1998
Vhttp://www.ispot.tv/products/1/block-cheese
p1999
sVHealth Care & Medical/Feminine Hygeine/Pads
p2000
Vhttp://www.ispot.tv/products/Lu/pads
p2001
sVBusiness & Legal/Consulting/cash advance
p2002
Vhttp://www.ispot.tv/products/SK/cash-advance
p2003
sVFood & Beverage/Snack Foods/Chocolate Chips
p2004
Vhttp://www.ispot.tv/products/OH/chocolate-chips
p2005
sVLife & Entertainment/TV Station/Shows
p2006
Vhttp://www.ispot.tv/products/dD/shows
p2007
sVBusiness & Legal/Business Supplies & Services/Stationary
p2008
Vhttp://www.ispot.tv/products/2g/stationary
p2009
sVRetail Stores/Clothing Stores/Pants
p2010
Vhttp://www.ispot.tv/products/2h/pants
p2011
sVRetail Stores/Toy Stores/Invitations
p2012
Vhttp://www.ispot.tv/products/qJ/invitations
p2013
sVFood & Beverage/Snack Foods/Almonds
p2014
Vhttp://www.ispot.tv/products/AN/almonds
p2015
sVBeauty & Appearance/Shaving and Hair Removal/Hair Removers
p2016
Vhttp://www.ispot.tv/products/gQ/hair-removers
p2017
sVHealth Care & Medical/Bones, Joints & Muscle/Muscular Pain
p2018
Vhttp://www.ispot.tv/products/7o/muscular-pain
p2019
sVVehicles/Auto Parts & Repair/Carburetor
p2020
Vhttp://www.ispot.tv/products/fS/carburetor
p2021
sVHealth Care & Medical/Hospitals & Treatment Centers/Cancer
p2022
Vhttp://www.ispot.tv/products/BK/cancer
p2023
sVElectronics & Communication/Televisions/Plasma & LCD
p2024
Vhttp://www.ispot.tv/products/wY/plasma-&-lcd
p2025
sVElectronics & Communication/Televisions/HDTV
p2026
Vhttp://www.ispot.tv/products/6z/hdtv
p2027
sVFood & Beverage/Soda/Flavor Mix
p2028
Vhttp://www.ispot.tv/products/TT/flavor-mix
p2029
sVVehicles/Car Maintenance & Accessories/Sealant
p2030
Vhttp://www.ispot.tv/products/S3/sealant
p2031
sVHealth Care & Medical/Vitamins & Supplements/Digestive Aid
p2032
Vhttp://www.ispot.tv/products/wV/digestive-aid
p2033
sVVehicles/Auto Makers/SUV
p2034
Vhttp://www.ispot.tv/products/s/suv
p2035
sVLife & Entertainment/Toys & Games/Building Blocks
p2036
Vhttp://www.ispot.tv/products/OV/building-blocks
p2037
sVApparel, Footwear & Accessories/Shoes & Socks/Sports
p2038
Vhttp://www.ispot.tv/products/IR/sports
p2039
sVHealth Care & Medical/Supplies/CPAP
p2040
Vhttp://www.ispot.tv/products/Zj/cpap
p2041
sVHealth Care & Medical/Weight Loss/Cholesterol
p2042
Vhttp://www.ispot.tv/products/ql/cholesterol
p2043
sVLife & Entertainment/News & Information/App
p2044
Vhttp://www.ispot.tv/products/5u/app
p2045
sVRestaurants/Fast Food/Soups and Stews
p2046
Vhttp://www.ispot.tv/products/gJ/soups-and-stews
p2047
sVHealth Care & Medical/Vitamins & Supplements/Testosterone
p2048
Vhttp://www.ispot.tv/products/Bl/testosterone
p2049
sVRetail Stores/Clothing Stores/Undergarments
p2050
Vhttp://www.ispot.tv/products/75/undergarments
p2051
sVLife & Entertainment/Hobbies & Collectibles/Firearms
p2052
Vhttp://www.ispot.tv/products/S_/firearms
p2053
sVLife & Entertainment/Sports/Football
p2054
Vhttp://www.ispot.tv/products/AK/football
p2055
sVFood & Beverage/Fruit Juices & Drinks/Nutritional Drinks
p2056
Vhttp://www.ispot.tv/products/kF/nutritional-drinks
p2057
sVHome & Real Estate/Pet & Pest Control/Pest Control
p2058
Vhttp://www.ispot.tv/products/n4/pest-control
p2059
sVVehicles/Auto Parts & Repair/Breaks
p2060
Vhttp://www.ispot.tv/products/fw/breaks
p2061
sVHome & Real Estate/Toiletries & Paper Products/Bathroom Tissue
p2062
Vhttp://www.ispot.tv/products/5B/bathroom-tissue
p2063
sVHealth Care & Medical/Feminine Hygeine/Intimate Massager
p2064
Vhttp://www.ispot.tv/products/q5/intimate-massager
p2065
sVFood & Beverage/Spreads, Sauces & Salad Dressings/Cheese
p2066
Vhttp://www.ispot.tv/products/wi/cheese
p2067
sVApparel, Footwear & Accessories/Clothing/Shorts
p2068
Vhttp://www.ispot.tv/products/fx/shorts
p2069
sVHealth Care & Medical/Baby Care/Potty Training
p2070
Vhttp://www.ispot.tv/products/tH/potty-training
p2071
sVVehicles/Fuel & Motor Oil/Oil Filter
p2072
Vhttp://www.ispot.tv/products/6c/oil-filter
p2073
sVHealth Care & Medical/Vitamins & Supplements/Vision
p2074
Vhttp://www.ispot.tv/products/7I/vision
p2075
sVVehicles/Auto Makers/Crossover
p2076
Vhttp://www.ispot.tv/products/kt/crossover
p2077
sVHome & Real Estate/Housing & Home Improvement/Reusable Adhesive
p2078
Vhttp://www.ispot.tv/products/5d/reusable-adhesive
p2079
sVFood & Beverage/Water/Bottles
p2080
Vhttp://www.ispot.tv/products/M/bottles
p2081
sVLife & Entertainment/Music/Sport Bike
p2082
Vhttp://www.ispot.tv/products/g6/sport-bike
p2083
sVFood & Beverage/Breakfast & Cereal/Coffee
p2084
Vhttp://www.ispot.tv/products/2C/coffee
p2085
sVFood & Beverage/Snack Foods/Pretzels
p2086
Vhttp://www.ispot.tv/products/wd/pretzels
p2087
sVFood & Beverage/Frozen Foods/Snacks
p2088
Vhttp://www.ispot.tv/products/LE/snacks
p2089
sVFood & Beverage/Dairy, Eggs & Cheese/Almond Milk
p2090
Vhttp://www.ispot.tv/products/dU/almond-milk
p2091
sVFood & Beverage/Condiments, Spices & Bake/Seasonings
p2092
Vhttp://www.ispot.tv/products/Zn/seasonings
p2093
sVHealth Care & Medical/Vitamins & Supplements/Omega-3
p2094
Vhttp://www.ispot.tv/products/Ya/omega-3
p2095
sVBeauty & Appearance/Skin Care/Scar Gels
p2096
Vhttp://www.ispot.tv/products/7X/scar-gels
p2097
sVRetail Stores/Clothing Stores/Coats
p2098
Vhttp://www.ispot.tv/products/Z8/coats
p2099
sVFood & Beverage/Water/Bottled
p2100
Vhttp://www.ispot.tv/products/oA/bottled
p2101
sVBeauty & Appearance/Cosmetics & Makeup/Nail Polishes
p2102
Vhttp://www.ispot.tv/products/2T/nail-polishes
p2103
sVHealth Care & Medical/Hospitals & Treatment Centers/Breast Cancer
p2104
Vhttp://www.ispot.tv/products/1q/breast-cancer
p2105
sVLife & Entertainment/Books/Religion
p2106
Vhttp://www.ispot.tv/products/BS/religion
p2107
sVHealth Care & Medical/Pain Relief/Creme
p2108
Vhttp://www.ispot.tv/products/Yb/creme
p2109
sVElectronics & Communication/Wireless/Wireless Receiver
p2110
Vhttp://www.ispot.tv/products/dw/wireless-receiver
p2111
sVRetail Stores/Online & Auction Websites/Screen Protector
p2112
Vhttp://www.ispot.tv/products/6A/screen-protector
p2113
sVHome & Real Estate/Bedding/Cushions
p2114
Vhttp://www.ispot.tv/products/SH/cushions
p2115
sVLife & Entertainment/TV Station/Apps
p2116
Vhttp://www.ispot.tv/products/1G/apps
p2117
s.