(lp1
(dp2
S'TEST_1'
p3
S'7e1b27cd-7341-4212-bc16-2857971d42c0'
p4
sa(dp5
S'TEST_2'
p6
S'2812a22b-8ff9-4169-8e1b-403c4fd1881c'
p7
sa(dp8
S'TEST_3'
p9
S'528851e3-11bb-440b-817a-cbbe2df36527'
p10
sa(dp11
S'TEST_4'
p12
S'411c5b1c-2a4b-4740-9049-5d30a12c6b9d'
p13
sa(dp14
S'TEST_5'
p15
S'5292858f-da4d-4868-8aa7-16a4266cb77e'
p16
sa(dp17
S'TEST_6'
p18
S'08e4c606-a63e-45ce-816f-51a9d2e6e116'
p19
sa(dp20
S'TEST_7'
p21
S'2fd6d1c6-8ac0-407a-9956-eb8ce3b4c097'
p22
sa(dp23
S'TEST_8'
p24
S'51c29dd1-1819-4a54-9d5b-625268deb2c1'
p25
sa(dp26
S'TEST_9'
p27
S'11f822f2-fbec-4f7c-a925-b203dc488144'
p28
sa(dp29
S'TEST_10'
p30
S'48ea020d-8d83-4dd7-a27b-e495f90c1e05'
p31
sa(dp32
S'TEST_11'
p33
S'3ac96b23-8bf8-4da7-8448-88cdef08b608'
p34
sa(dp35
S'TEST_12'
p36
S'4260ec20-156d-43c6-9a9c-3259bb99342a'
p37
sa(dp38
S'TEST_13'
p39
S'b286b93e-4076-4005-89ab-d8352bbf583c'
p40
sa(dp41
S'TEST_14'
p42
S'55225a5f-ad1b-4ff5-af17-4ee46b8fef1a'
p43
sa(dp44
S'TEST_15'
p45
S'6d0b15f5-5aac-4def-919b-79b3bcfe8022'
p46
sa(dp47
S'TEST_16'
p48
S'04e4a1eb-869e-41b6-aa1d-2e8acb558814'
p49
sa(dp50
S'TEST_17'
p51
S'bd943877-db6b-42da-a6e7-03b64a2641b1'
p52
sa(dp53
S'TEST_18'
p54
S'4fef0c5b-85db-4610-929a-dd3c02f8df45'
p55
sa(dp56
S'TEST_19'
p57
S'276312f0-8ec9-493f-ba9a-236dd5efd93b'
p58
sa(dp59
S'TEST_20'
p60
S'17bc550e-2fc0-4044-9738-e57298460b44'
p61
sa(dp62
S'TEST_21'
p63
S'a988416e-3c66-45fe-81cf-57231c4239a0'
p64
sa(dp65
S'TEST_22'
p66
S'dd011a3a-7411-4f29-953c-0bb21a3de76d'
p67
sa(dp68
S'TEST_23'
p69
S'695e4e33-2b2c-4c8a-ada2-fb772ad54359'
p70
sa(dp71
S'TEST_24'
p72
S'0f98954c-cfd1-4ee5-9467-9a1aa51cbdac'
p73
sa(dp74
S'TEST_25'
p75
S'4709df9b-6c74-4cce-936a-3f28d3cdebcf'
p76
sa(dp77
S'TEST_26'
p78
S'8d3f6fb0-c068-49cc-92ec-4088289c4797'
p79
sa(dp80
S'TEST_27'
p81
S'5a5cad98-7b36-4095-abb6-2fcc4c83a7a6'
p82
sa(dp83
S'TEST_28'
p84
S'0c40c82b-92b8-4438-969c-f9de358cf77d'
p85
sa(dp86
S'TEST_29'
p87
S'e960d260-0b12-4fba-9f82-4ca03f9954f0'
p88
sa(dp89
S'TEST_30'
p90
S'b55ea136-d8e4-4035-8634-bda03a2c5061'
p91
sa(dp92
S'TEST_31'
p93
S'b03731a5-78ba-49b2-9320-909dfdee7d61'
p94
sa(dp95
S'TEST_32'
p96
S'100ff8ec-e7e9-4043-8f62-60508071ac3e'
p97
sa(dp98
S'TEST_33'
p99
S'fc0caf22-ceb9-407c-bdd0-a28c4ece26db'
p100
sa(dp101
S'TEST_34'
p102
S'bb23c59e-c7c9-400a-a08d-58fa76454dc8'
p103
sa(dp104
S'TEST_35'
p105
S'6728dc06-6911-434f-ba7e-fd6a442eca58'
p106
sa(dp107
S'TEST_36'
p108
S'f61c13cd-b89d-443d-82c8-2b4a2c6e5aaf'
p109
sa(dp110
S'TEST_37'
p111
S'017b0b63-1bb8-4775-af33-cd54fdb04b39'
p112
sa(dp113
S'TEST_38'
p114
S'e3a1e3ae-6cf9-4b73-aaa4-cf5cb21c4c67'
p115
sa(dp116
S'TEST_39'
p117
S'727e2f80-a21e-4ee9-9cb6-648b5afaffe1'
p118
sa(dp119
S'TEST_40'
p120
S'45e1ddf4-a278-4616-8147-f1415f8354df'
p121
sa(dp122
S'TEST_41'
p123
S'85c7ec66-ec2a-4eee-af33-33f3b5155147'
p124
sa(dp125
S'TEST_42'
p126
S'a8e8fb33-3ab0-4ff7-8474-030b1ce8c03a'
p127
sa(dp128
S'TEST_43'
p129
S'0cf33b12-a819-456d-b9ff-b1098eeab34d'
p130
sa(dp131
S'TEST_44'
p132
S'a950978b-86f1-460b-a357-2916ef137f4e'
p133
sa(dp134
S'TEST_45'
p135
S'b6b51ea1-5ae5-468f-b222-cde5d3022ac3'
p136
sa(dp137
S'TEST_46'
p138
S'ffaad299-4500-427d-92d4-f6e726d8ffb8'
p139
sa(dp140
S'TEST_47'
p141
S'e999ada0-5eae-41a5-92aa-1a97d30a0e2a'
p142
sa(dp143
S'TEST_48'
p144
S'8a7ee69a-129b-45e6-8fe7-cad9b2c3d4bb'
p145
sa(dp146
S'TEST_49'
p147
S'1778ea9c-1ff4-46dd-ae88-7253cc592455'
p148
sa(dp149
S'TEST_50'
p150
S'32190923-5716-4f3c-bb1e-6e53d7859bd8'
p151
sa(dp152
S'TEST_51'
p153
S'f9d5b728-391e-4cf3-81cb-b5f274de6162'
p154
sa(dp155
S'TEST_52'
p156
S'c918d374-2030-464f-b108-cd125b87c5cd'
p157
sa(dp158
S'TEST_53'
p159
S'33c662d5-6277-4f75-8437-b728b83e1ba1'
p160
sa(dp161
S'TEST_54'
p162
S'205e2be4-f2ec-4cea-af65-9e071d3c0627'
p163
sa(dp164
S'TEST_55'
p165
S'825b5061-ca56-4837-bb01-35e35bea18d7'
p166
sa(dp167
S'TEST_56'
p168
S'4547c692-b91f-4d58-b978-c7e5514d6eb2'
p169
sa(dp170
S'TEST_57'
p171
S'1c98c427-488e-47a7-b414-d2490570a5a0'
p172
sa(dp173
S'TEST_58'
p174
S'1fbae4bb-dd17-4fd0-be22-d4a1dca98b3b'
p175
sa(dp176
S'TEST_59'
p177
S'b28d1b0a-1584-4eda-a02e-7ab8e1d463fb'
p178
sa(dp179
S'TEST_60'
p180
S'c3d8d631-2c74-4206-a3e7-6494db27726b'
p181
sa(dp182
S'TEST_61'
p183
S'22eed7c5-3922-455c-9f86-c733c084d2f4'
p184
sa(dp185
S'TEST_62'
p186
S'5f2bfcd6-9b34-40d9-b538-f6f0cc103c70'
p187
sa(dp188
S'TEST_63'
p189
S'e3ddd0b1-e860-4ef1-8521-2b4fd68b1daa'
p190
sa(dp191
S'TEST_64'
p192
S'5523bf97-90b1-4010-911c-7b6d528d1f1a'
p193
sa(dp194
S'TEST_65'
p195
S'b2ac48e1-b4d7-45e9-b32b-dd44fc2bd2d7'
p196
sa(dp197
S'TEST_66'
p198
S'80753dec-f9e1-4776-9b67-bdcdcd7933c8'
p199
sa(dp200
S'TEST_67'
p201
S'43443aa2-939f-473b-8170-2d76dcaef7ac'
p202
sa(dp203
S'TEST_68'
p204
S'9e6f3d2c-19a4-43ae-931a-cdf129aef8fc'
p205
sa(dp206
S'TEST_69'
p207
S'2e87c828-799e-4201-b409-cd6d8d0dc824'
p208
sa(dp209
S'TEST_70'
p210
S'e674d76a-9fe7-4346-9ac8-0ca55502d93b'
p211
sa(dp212
S'TEST_71'
p213
S'85604907-dcc0-4cfe-8472-b074d3a2b3eb'
p214
sa(dp215
S'TEST_72'
p216
S'1810ac96-63c0-4326-b5ec-16d534c0f53d'
p217
sa(dp218
S'TEST_73'
p219
S'c3625f6d-5d61-4999-8057-278efb029943'
p220
sa(dp221
S'TEST_74'
p222
S'2002c29c-162d-4089-bef8-b403f6e864db'
p223
sa(dp224
S'TEST_75'
p225
S'5cb0beda-497d-4628-a8b6-df956e7582f3'
p226
sa(dp227
S'TEST_76'
p228
S'2dedd4d3-43a5-4cfe-bbf8-5a0a2daef92b'
p229
sa(dp230
S'TEST_77'
p231
S'027b15b0-99a0-4752-ac66-d630170ba04b'
p232
sa(dp233
S'TEST_78'
p234
S'3dcef2b2-3347-4250-ac33-131fbe76e1de'
p235
sa(dp236
S'TEST_79'
p237
S'f63c1012-67da-4727-a8ed-3d50c46616e2'
p238
sa(dp239
S'TEST_80'
p240
S'80edd175-b0c9-49fd-b195-2acaea9a6048'
p241
sa(dp242
S'TEST_81'
p243
S'8b86ea9a-52a0-469e-a107-9b360f8bf63b'
p244
sa(dp245
S'TEST_82'
p246
S'c51fdd89-10eb-467b-93d0-850b0726960c'
p247
sa(dp248
S'TEST_83'
p249
S'f552fbde-1b3b-4c43-9c92-35f143be9125'
p250
sa(dp251
S'TEST_84'
p252
S'6e6a96a0-bd86-4c5d-a482-fd0ea520e556'
p253
sa(dp254
S'TEST_85'
p255
S'5e292cb0-a96e-40b4-be92-55b830ec359c'
p256
sa(dp257
S'TEST_86'
p258
S'13c92da2-a195-4c48-bce9-232d4e1de3c0'
p259
sa(dp260
S'TEST_87'
p261
S'30c6802d-a610-4850-804a-e27bd88f110a'
p262
sa(dp263
S'TEST_88'
p264
S'65d0c085-2ab6-4854-859c-c58872f14f81'
p265
sa(dp266
S'TEST_89'
p267
S'cd9fdfe5-52fb-49eb-8197-c50f7cc894c0'
p268
sa(dp269
S'TEST_90'
p270
S'68bccecd-fc60-4869-a107-43a3a0400eb9'
p271
sa(dp272
S'TEST_91'
p273
S'db389a50-20be-4461-9b32-7839323fcd23'
p274
sa(dp275
S'TEST_92'
p276
S'be93342f-d99f-4c3a-af8c-98ff5bdac0a8'
p277
sa(dp278
S'TEST_93'
p279
S'0118d387-a21e-4f0e-81d9-645a667efce7'
p280
sa(dp281
S'TEST_94'
p282
S'e4810d92-63c7-44af-aa29-23a99fd9f799'
p283
sa(dp284
S'TEST_95'
p285
S'1ab69b55-ac1c-4dfa-ab84-b361828139f9'
p286
sa(dp287
S'TEST_96'
p288
S'9c6b6522-021d-4d07-9f06-c8d9e93205ab'
p289
sa(dp290
S'TEST_97'
p291
S'6599890e-70b3-48ae-8dba-81786390b6b6'
p292
sa(dp293
S'TEST_98'
p294
S'e4ac8758-0456-4d7c-b451-b8e090411ef6'
p295
sa(dp296
S'TEST_99'
p297
S'47c0b75f-e024-4a47-957c-48d187e80936'
p298
sa(dp299
S'TEST_100'
p300
S'51dd1e11-8035-4662-bb35-c9882cf41316'
p301
sa.